(dp1
S'Org_iJN746 RR296'
p2
S'RHACOAR60'
p3
sS'Org_iJN746 RR297'
p4
S'RHACOAR80'
p5
sS'Org_iJN746 RR294'
p6
S'RHACOAR120'
p7
sS'Org_iJN746 RR295'
p8
S'RHACOAR140'
p9
sS'Org_iJN746 RR292'
p10
S'RBK'
p11
sS'Org_iJN746 RR293'
p12
S'RHACOAR100'
p13
sS'Org_iJN746 RR290'
p14
S'QUIN2tex'
p15
sS'Org_iJN746 RR291'
p16
S'QUINtpp'
p17
sS'Org_iJN746 RR298'
p18
S'RIBtex'
p19
sS'Org_iJN746 RR299'
p20
S'RNADRr'
p21
sS'Org_iJN746 RR89'
p22
S'CLPNS160pp'
p23
sS'Org_iJN746 RR11'
p24
S'3OAR100'
p25
sS'Org_iJN746 RR10'
p26
S'3HAACOAT80'
p27
sS'Org_iJN746 RR13'
p28
S'3OAR140'
p29
sS'Org_iJN746 RR12'
p30
S'3OAR120'
p31
sS'Org_iJN746 RR15'
p32
S'3OAR180'
p33
sS'Org_iJN746 RR14'
p34
S'3OAR160'
p35
sS'Org_iJN746 RR17'
p36
S'3OAR60'
p37
sS'Org_iJN746 RR16'
p38
S'3OAR40'
p39
sS'Org_iJN746 RR19'
p40
S'3OXOADPt_ex'
p41
sS'Org_iJN746 RR18'
p42
S'3OAR80'
p43
sS'Org_iJN746 RevBR190'
p44
S'IPDDI'
p45
sS'Org_iJN746 IR378'
p46
S'NADK'
p47
sS'Org_iJN746 IR379'
p48
S'NADPHQR2'
p49
sS'Org_iJN746 IR376'
p50
S'NADH16pp'
p51
sS'Org_iJN746 IR377'
p52
S'NADH5'
p53
sS'Org_iJN746 IR374'
p54
S'MXMO'
p55
sS'Org_iJN746 IR375'
p56
S'NACHY'
p57
sS'Org_iJN746 IR372'
p58
S'MTOLDOX'
p59
sS'Org_iJN746 IR373'
p60
S'MUCCY_kt'
p61
sS'Org_iJN746 IR370'
p62
S'MSO3abcpp'
p63
sS'Org_iJN746 IR371'
p64
S'MTHFR3'
p65
sS'Org_iJN746 IR47'
p66
S'6HNACMO'
p67
sS'Org_iJN746 IR46'
p68
S'4OD2'
p69
sS'Org_iJN746 IR45'
p70
S'4OD'
p71
sS'Org_iJN746 IR44'
p72
S'4MCAT23DOX'
p73
sS'Org_iJN746 IR43'
p74
S'4MBZDH'
p75
sS'Org_iJN746 IR42'
p76
S'4MBZALDH'
p77
sS'Org_iJN746 IR41'
p78
S'4HTHRS'
p79
sS'Org_iJN746 IR40'
p80
S'4HBHYOX'
p81
sS'Org_iJN746 ER78'
p82
S'so4_eExc'
p83
sS'Org_iJN746 ER79'
p84
S'dna5mtc_cExc'
p85
sS'Org_iJN746 IR49'
p86
S'ABUTt2pp'
p87
sS'Org_iJN746 IR48'
p88
S'AASAD3'
p89
sS'Org_iJN746 IR574'
p90
S'UAGDP'
p91
sS'Org_iJN746 IR575'
p92
S'UAGPT3'
p93
sS'Org_iJN746 IR576'
p94
S'UAMAGS'
p95
sS'Org_iJN746 IR577'
p96
S'UAMAS'
p97
sS'Org_iJN746 IR570'
p98
S'TSULabcpp'
p99
sS'Org_iJN746 IR571'
p100
S'TYRTRS'
p101
sS'Org_iJN746 IR572'
p102
S'UAAGDS'
p103
sS'Org_iJN746 IR573'
p104
S'UAGCVT'
p105
sS'Org_iJN746 ER94'
p106
S'glyald_eExc'
p107
sS'Org_iJN746 ER95'
p108
S'ptal_cExc'
p109
sS'Org_iJN746 ER96'
p110
S'tol_eExc'
p111
sS'Org_iJN746 ER97'
p112
S'h2_eExc'
p113
sS'Org_iJN746 IR578'
p114
S'UAPGR'
p115
sS'Org_iJN746 IR579'
p116
S'UDCPDP'
p117
sS'Org_iJN746 ER92'
p118
S'acon_C_eExc'
p119
sS'Org_iJN746 ER93'
p120
S'nh4_eExc'
p121
sS'Org_iJN746 IR408'
p122
S'NTD9pp'
p123
sS'Org_iJN746 IR409'
p124
S'NTRIR2x'
p125
sS'Org_iJN746 IR154'
p126
S'DAPAT'
p127
sS'Org_iJN746 IR155'
p128
S'DAPDC'
p129
sS'Org_iJN746 IR152'
p130
S'DAAD'
p131
sS'Org_iJN746 IR153'
p132
S'DADA'
p133
sS'Org_iJN746 IR150'
p134
S'CYTBDpp'
p135
sS'Org_iJN746 IR151'
p136
S'CYTBO3_4pp'
p137
sS'Org_iJN746 IR400'
p138
S'NTD5pp'
p139
sS'Org_iJN746 IR401'
p140
S'NTD6'
p141
sS'Org_iJN746 IR402'
p142
S'NTD6pp'
p143
sS'Org_iJN746 IR403'
p144
S'NTD7'
p145
sS'Org_iJN746 IR404'
p146
S'NTD7pp'
p147
sS'Org_iJN746 IR405'
p148
S'NTD8'
p149
sS'Org_iJN746 IR406'
p150
S'NTD8pp'
p151
sS'Org_iJN746 IR407'
p152
S'NTD9'
p153
sS'Org_iJN746 IR63'
p154
S'ADCPS2'
p155
sS'Org_iJN746 RR195'
p156
S'KARA1'
p157
sS'Org_iJN746 RR194'
p158
S'ISETACtex'
p159
sS'Org_iJN746 RR197'
p160
S'ACACT2r'
p161
sS'Org_iJN746 RR196'
p162
S'KARA2'
p163
sS'Org_iJN746 RR191'
p164
S'IPMD'
p165
sS'Org_iJN746 RR190'
p166
g45
sS'Org_iJN746 RR193'
p167
S'IPPMIb'
p168
sS'Org_iJN746 RR192'
p169
S'IPPMIa'
p170
sS'Org_iJN746 RR199'
p171
S'ACACT4r'
p172
sS'Org_iJN746 RR198'
p173
S'ACACT3r'
p174
sS'Org_iJN746 IR69'
p175
S'ASPK'
p176
sS'Org_iJN746 IR68'
p177
S'ADPT'
p178
sS'Org_iJN746 RR289'
p179
S'P_Xylt1'
p180
sS'Org_iJN746 RR288'
p181
S'P_XYLtpp'
p182
sS'Org_iJN746 ER4'
p183
S'o2_eExc'
p184
sS'Org_iJN746 ER5'
p185
S'lac__L_eExc'
p186
sS'Org_iJN746 ER2'
p187
S'catechol_eExc'
p188
sS'Org_iJN746 ER3'
p189
S'fum_eExc'
p190
sS'Org_iJN746 ER1'
p191
S'cobalt2_eExc'
p192
sS'Org_iJN746 RR281'
p193
S'PRPPS'
p194
sS'Org_iJN746 RR280'
p195
S'PROtex'
p196
sS'Org_iJN746 RR283'
p197
S'PSERT'
p198
sS'Org_iJN746 RR282'
p199
S'PSCVT'
p200
sS'Org_iJN746 RR285'
p201
S'PTPATi'
p202
sS'Org_iJN746 RR284'
p203
S'PTAr'
p204
sS'Org_iJN746 RR287'
p205
S'PYNP2r'
p206
sS'Org_iJN746 ER9'
p207
S'dca_eExc'
p208
sS'Org_iJN746 ER101'
p209
S'C100mclPHA_cExc'
p210
sS'Org_iJN746 ER100'
p211
S'tyr__L_eExc'
p212
sS'Org_iJN746 ER103'
p213
S'hco3_eExc'
p214
sS'Org_iJN746 ER102'
p215
S'asp__L_eExc'
p216
sS'Org_iJN746 ER105'
p217
S'cit_eExc'
p218
sS'Org_iJN746 ER104'
p219
S'glc__D_eExc'
p220
sS'Org_iJN746 ER107'
p221
S'ptrc_eExc'
p222
sS'Org_iJN746 ER106'
p223
S'glyclt_eExc'
p224
sS'Org_iJN746 IR220'
p225
S'FCLT'
p226
sS'Org_iJN746 IR221'
p227
S'FCOAHA'
p228
sS'Org_iJN746 IR222'
p229
S'FDH'
p230
sS'Org_iJN746 IR223'
p231
S'FDMO'
p232
sS'Org_iJN746 IR224'
p233
S'FDMO2'
p234
sS'Org_iJN746 IR225'
p235
S'FDMO3'
p236
sS'Org_iJN746 IR226'
p237
S'FDMO5'
p238
sS'Org_iJN746 IR227'
p239
S'FDMOtau'
p240
sS'Org_iJN746 IR259'
p241
S'GLNS'
p242
sS'Org_iJN746 RevBR65'
p243
S'ALDD2x_copy2'
p244
sS'Org_iJN746 IR54'
p245
S'ACLS'
p246
sS'Org_iJN746 IR55'
p247
S'ACOADH1'
p248
sS'Org_iJN746 IR56'
p249
S'ACOADH2'
p250
sS'Org_iJN746 IR57'
p251
S'ACODA'
p252
sS'Org_iJN746 IR50'
p253
S'ACBIPGT'
p254
sS'Org_iJN746 IR51'
p255
S'ACGK'
p256
sS'Org_iJN746 IR52'
p257
S'ACGS'
p258
sS'Org_iJN746 IR53'
p259
S'ACHBS'
p260
sS'Org_iJN746 IR58'
p261
S'ACS2'
p262
sS'Org_iJN746 IR59'
p263
S'ACt2rpp'
p264
sS'Org_iJN746 IR567'
p265
S'TMDS'
p266
sS'Org_iJN746 IR566'
p267
S'THRabcpp'
p268
sS'Org_iJN746 IR565'
p269
S'THRTRS'
p270
sS'Org_iJN746 IR564'
p271
S'THRS'
p272
sS'Org_iJN746 IR563'
p273
S'THRD_L'
p274
sS'Org_iJN746 IR562'
p275
S'THDPS'
p276
sS'Org_iJN746 IR561'
p277
S'TAURabcpp'
p278
sS'Org_iJN746 IR560'
p279
S'TAUDO'
p280
sS'Org_iJN746 IR569'
p281
S'TRPS2'
p282
sS'Org_iJN746 IR568'
p283
S'TRDR'
p284
sS'Org_iJN746 IR361'
p285
S'MECDPS'
p286
sS'Org_iJN746 IR360'
p287
S'MECDPDH'
p288
sS'Org_iJN746 IR363'
p289
S'METAT'
p290
sS'Org_iJN746 IR362'
p291
S'MEPCT'
p292
sS'Org_iJN746 IR365'
p293
S'METTRS'
p294
sS'Org_iJN746 IR364'
p295
S'METGL'
p296
sS'Org_iJN746 IR367'
p297
S'MGCH'
p298
sS'Org_iJN746 IR366'
p299
S'METabcpp'
p300
sS'Org_iJN746 IR369'
p301
S'MOHMT'
p302
sS'Org_iJN746 IR368'
p303
S'MMTSAO'
p304
sS'Org_iJN746 IR149'
p305
S'CYSabcpp'
p306
sS'Org_iJN746 IR148'
p307
S'CYSTRS'
p308
sS'Org_iJN746 IR419'
p309
S'OMPDC'
p310
sS'Org_iJN746 IR418'
p311
S'OMCDC'
p312
sS'Org_iJN746 IR141'
p313
S'CYO1_KT'
p314
sS'Org_iJN746 IR140'
p315
S'CTPS2'
p316
sS'Org_iJN746 IR143'
p317
S'CYRDAAT'
p318
sS'Org_iJN746 IR142'
p319
S'CYO1b'
p320
sS'Org_iJN746 IR145'
p321
S'CYSS'
p322
sS'Org_iJN746 IR144'
p323
S'CYRDAR'
p324
sS'Org_iJN746 IR147'
p325
S'CYSTL'
p326
sS'Org_iJN746 IR146'
p327
S'SLCYSS'
p328
sS'Org_iJN746 IR134'
p329
S'COCOAHA'
p330
sS'Org_iJN746 IR135'
p331
S'CPPPGO'
p332
sS'Org_iJN746 IR136'
p333
S'CPPPGO2'
p334
sS'Org_iJN746 IR137'
p335
S'CRNabcpp'
p336
sS'Org_iJN746 IR130'
p337
S'COALCDH'
p338
sS'Org_iJN746 IR131'
p339
S'COALDDH'
p340
sS'Org_iJN746 IR132'
p341
S'COBALT2tpp'
p342
sS'Org_iJN746 IR133'
p343
S'COCHL'
p344
sS'Org_iJN746 RevBR303'
p345
S'SDPTA'
p346
sS'Org_iJN746 RR168'
p347
S'H2CO3D2'
p348
sS'Org_iJN746 RR169'
p349
S'H2Otex'
p350
sS'Org_iJN746 RR160'
p351
S'GLYCtex'
p352
sS'Org_iJN746 RR161'
p353
S'GLYCtpp'
p354
sS'Org_iJN746 RR162'
p355
S'HPYRRx'
p356
sS'Org_iJN746 RR163'
p357
S'GLYabcpp'
p358
sS'Org_iJN746 RR164'
p359
S'GLYtex'
p360
sS'Org_iJN746 RR165'
p361
S'GTHPi'
p362
sS'Org_iJN746 RR166'
p363
S'GTPDPDP'
p364
sS'Org_iJN746 RR167'
p365
S'H2CO3D'
p366
sS'Org_iJN746 ER98'
p367
S'vanln_eExc'
p368
sS'Org_iJN746 RevBR289'
p369
g180
sS'Org_iJN746 RevBR288'
p370
g182
sS'Org_iJN746 ER99'
p371
S'pro__L_eExc'
p372
sS'Org_iJN746 RevBR281'
p373
g194
sS'Org_iJN746 RevBR280'
p374
g196
sS'Org_iJN746 RevBR283'
p375
g198
sS'Org_iJN746 RevBR282'
p376
g200
sS'Org_iJN746 RevBR285'
p377
g202
sS'Org_iJN746 RevBR284'
p378
g204
sS'Org_iJN746 RevBR287'
p379
g206
sS'Org_iJN746 RevBR286'
p380
S'PTRCtex'
p381
sS'Org_iJN746 RevBR238'
p382
S'NDPK8'
p383
sS'Org_iJN746 RevBR239'
p384
S'NH4tex'
p385
sS'Org_iJN746 RevBR199'
p386
g172
sS'Org_iJN746 RevBR198'
p387
g174
sS'Org_iJN746 RevBR195'
p388
g157
sS'Org_iJN746 RevBR194'
p389
g159
sS'Org_iJN746 RevBR197'
p390
g161
sS'Org_iJN746 RevBR196'
p391
g163
sS'Org_iJN746 RevBR191'
p392
g165
sS'Org_iJN746 RevBR236'
p393
S'NDPK6'
p394
sS'Org_iJN746 RevBR193'
p395
g168
sS'Org_iJN746 RevBR192'
p396
g170
sS'Org_iJN746 RevBR237'
p397
S'NDPK7'
p398
sS'Org_iJN746 RevBR263'
p399
S'PGAMT'
p400
sS'Org_iJN746 RevBR262'
p401
S'PERD'
p402
sS'Org_iJN746 RevBR261'
p403
S'PENTSOtex'
p404
sS'Org_iJN746 RevBR260'
p405
S'PDHcr'
p406
sS'Org_iJN746 RevBR267'
p407
S'PGLCNDH'
p408
sS'Org_iJN746 RevBR266'
p409
S'PGK'
p410
sS'Org_iJN746 RevBR265'
p411
S'PGI'
p412
sS'Org_iJN746 RevBR264'
p413
S'PGCD'
p414
sS'Org_iJN746 RevBR269'
p415
S'PGMT'
p416
sS'Org_iJN746 RevBR268'
p417
S'PGM'
p418
sS'Org_iJN746 IR61'
p419
S'ADCL'
p420
sS'Org_iJN746 IR60'
p421
S'ADA'
p422
sS'Org_iJN746 RR79'
p423
S'BZtex'
p424
sS'Org_iJN746 RR78'
p425
S'BZt1pp'
p426
sS'Org_iJN746 IR65'
p427
S'ADNCYC'
p428
sS'Org_iJN746 IR64'
p429
S'ADCYRS'
p430
sS'Org_iJN746 IR67'
p431
S'ADOCBLS'
p432
sS'Org_iJN746 IR66'
p433
S'ADOCBIK'
p434
sS'Org_iJN746 RR73'
p435
S'ASPTA'
p436
sS'Org_iJN746 RR72'
p437
S'ASAD'
p438
sS'Org_iJN746 RR71'
p439
S'ARUH'
p440
sS'Org_iJN746 RR70'
p441
S'ARGtex'
p442
sS'Org_iJN746 RR77'
p443
S'BDH'
p444
sS'Org_iJN746 RR76'
p445
S'ATPS4rpp'
p446
sS'Org_iJN746 RR75'
p447
S'ATPPRT'
p448
sS'Org_iJN746 RR74'
p449
S'ASPtex'
p450
sS'Org_iJN746 IR228'
p451
S'FE2abc'
p452
sS'Org_iJN746 IR229'
p453
S'FERULCOAS'
p454
sS'Org_iJN746 IR558'
p455
S'SULR'
p456
sS'Org_iJN746 IR559'
p457
S'SULabcpp'
p458
sS'Org_iJN746 IR552'
p459
S'SHSL1'
p460
sS'Org_iJN746 IR553'
p461
S'SOTA'
p462
sS'Org_iJN746 IR550'
p463
S'SHCHF'
p464
sS'Org_iJN746 IR551'
p465
S'SHKK'
p466
sS'Org_iJN746 IR556'
p467
S'SUCCt2_2pp'
p468
sS'Org_iJN746 IR557'
p469
S'SUCDi'
p470
sS'Org_iJN746 IR554'
p471
S'SPMDabcpp'
p472
sS'Org_iJN746 IR555'
p473
S'SPMS'
p474
sS'Org_iJN746 IR314'
p475
S'HMSD'
p476
sS'Org_iJN746 IR315'
p477
S'HMSD2'
p478
sS'Org_iJN746 IR316'
p479
S'HMSH'
p480
sS'Org_iJN746 IR317'
p481
S'HMSH2'
p482
sS'Org_iJN746 IR310'
p483
S'HISabcpp'
p484
sS'Org_iJN746 IR311'
p485
S'HMBS'
p486
sS'Org_iJN746 IR312'
p487
S'HMGL'
p488
sS'Org_iJN746 IR313'
p489
S'HMPK1'
p490
sS'Org_iJN746 IR318'
p491
S'HMSH3'
p492
sS'Org_iJN746 IR319'
p493
S'HOPNTAL'
p494
sS'Org_iJN746 ER91'
p495
S'dna_cExc'
p496
sS'Org_iJN746 IR138'
p497
S'CS'
p498
sS'Org_iJN746 IR139'
p499
S'CSND'
p500
sS'Org_iJN746 IR428'
p501
S'P5CR'
p502
sS'Org_iJN746 IR429'
p503
S'PABB'
p504
sS'Org_iJN746 IR426'
p505
S'OXOAEL'
p506
sS'Org_iJN746 IR427'
p507
S'P5CD'
p508
sS'Org_iJN746 IR424'
p509
S'ORNabcpp'
p510
sS'Org_iJN746 IR425'
p511
S'OXOADLR'
p512
sS'Org_iJN746 IR422'
p513
S'ORNCD'
p514
sS'Org_iJN746 IR423'
p515
S'ORNDC'
p516
sS'Org_iJN746 IR420'
p517
S'OP4ENH'
p518
sS'Org_iJN746 IR421'
p519
S'OP4ENH2'
p520
sS'Org_iJN746 RevBR48'
p521
S'ACtex'
p522
sS'Org_iJN746 RR81'
p523
S'CATECHOLtpp'
p524
sS'Org_iJN746 RR179'
p525
S'HSDxi'
p526
sS'Org_iJN746 RR178'
p527
S'HPYRI'
p528
sS'Org_iJN746 RR88'
p529
S'CLPNS120pp'
p530
sS'Org_iJN746 RR173'
p531
S'HACD9'
p532
sS'Org_iJN746 RR172'
p533
S'H2tpp'
p534
sS'Org_iJN746 RR171'
p535
S'H2tex'
p536
sS'Org_iJN746 RR170'
p537
S'H2Otpp'
p538
sS'Org_iJN746 RR177'
p539
S'HIStex'
p540
sS'Org_iJN746 RR176'
p541
S'HDCAtexi'
p542
sS'Org_iJN746 RR175'
p543
S'HCO3_NAt'
p544
sS'Org_iJN746 RR174'
p545
S'HCO3E'
p546
sS'Org_iJN746 ER72'
p547
S'co2_eExc'
p548
sS'Org_iJN746 ER73'
p549
S'mhpglu_cExc'
p550
sS'Org_iJN746 ER70'
p551
S'val__L_eExc'
p552
sS'Org_iJN746 ER71'
p553
S'tsul_eExc'
p554
sS'Org_iJN746 ER76'
p555
S'm_xyl_eExc'
p556
sS'Org_iJN746 ER77'
p557
S'lac__D_eExc'
p558
sS'Org_iJN746 ER74'
p559
S'2dhglcn_eExc'
p560
sS'Org_iJN746 RevBR298'
p561
g19
sS'Org_iJN746 RevBR299'
p562
g21
sS'Org_iJN746 RevBR296'
p563
g3
sS'Org_iJN746 RevBR297'
p564
g5
sS'Org_iJN746 RevBR294'
p565
g7
sS'Org_iJN746 RevBR295'
p566
g9
sS'Org_iJN746 RevBR292'
p567
g11
sS'Org_iJN746 RevBR293'
p568
g13
sS'Org_iJN746 RevBR290'
p569
g15
sS'Org_iJN746 RevBR291'
p570
g17
sS'Org_iJN746 RevBR182'
p571
S'HXAtex'
p572
sS'Org_iJN746 RevBR183'
p573
S'Htex'
p574
sS'Org_iJN746 RevBR180'
p575
S'HSERTA'
p576
sS'Org_iJN746 RevBR181'
p577
S'HSTPT'
p578
sS'Org_iJN746 RevBR186'
p579
S'ICITtex'
p580
sS'Org_iJN746 RevBR187'
p581
S'ILETA'
p582
sS'Org_iJN746 RevBR184'
p583
S'ICDHyr'
p584
sS'Org_iJN746 RevBR185'
p585
S'ICITt_kt'
p586
sS'Org_iJN746 RevBR188'
p587
S'ILEtex'
p588
sS'Org_iJN746 RevBR189'
p589
S'IMPC'
p590
sS'Org_iJN746 ER88'
p591
S'mclPHAg_cExc'
p592
sS'Org_iJN746 RevBR270'
p593
S'PHA'
p594
sS'Org_iJN746 RevBR271'
p595
S'PHETA1'
p596
sS'Org_iJN746 RevBR272'
p597
S'PHEt2rpp'
p598
sS'Org_iJN746 RevBR273'
p599
S'PHEtex'
p600
sS'Org_iJN746 RevBR274'
p601
S'PIt2rpp'
p602
sS'Org_iJN746 RevBR275'
p603
S'PItex'
p604
sS'Org_iJN746 RevBR276'
p605
S'PPK2'
p606
sS'Org_iJN746 RevBR277'
p607
S'PPM'
p608
sS'Org_iJN746 RevBR278'
p609
S'PRAIi'
p610
sS'Org_iJN746 RevBR279'
p611
S'PRASCSi'
p612
sS'Org_iJN746 IR74'
p613
S'AGPAT161'
p614
sS'Org_iJN746 IR75'
p615
S'AGPAT180'
p616
sS'Org_iJN746 IR72'
p617
S'AGPAT120'
p618
sS'Org_iJN746 IR73'
p619
S'AGPAT160'
p620
sS'Org_iJN746 IR70'
p621
S'ADSS'
p622
sS'Org_iJN746 IR71'
p623
S'AGMT'
p624
sS'Org_iJN746 RR68'
p625
S'ARGORNt7pp'
p626
sS'Org_iJN746 RR69'
p627
S'ARGSL'
p628
sS'Org_iJN746 RR60'
p629
S'ALAALAr'
p630
sS'Org_iJN746 RR61'
p631
S'ALAR'
p632
sS'Org_iJN746 RR62'
p633
S'ALATA_L'
p634
sS'Org_iJN746 RR63'
p635
S'ALAtex'
p636
sS'Org_iJN746 RR64'
p637
S'ALCD19'
p638
sS'Org_iJN746 RR65'
p639
g244
sS'Org_iJN746 RR66'
p640
S'AOXHEXCYCL'
p641
sS'Org_iJN746 RR67'
p642
S'APTNAT'
p643
sS'Org_iJN746 IR239'
p644
S'G1PACT'
p645
sS'Org_iJN746 IR238'
p646
S'FUMt2_2pp'
p647
sS'Org_iJN746 IR549'
p648
S'SHCHD2'
p649
sS'Org_iJN746 IR548'
p650
S'SGSAD'
p651
sS'Org_iJN746 IR233'
p652
S'FOLD3'
p653
sS'Org_iJN746 IR232'
p654
S'FMNRx2'
p655
sS'Org_iJN746 IR231'
p656
S'FMNAT'
p657
sS'Org_iJN746 IR230'
p658
S'FMETTRS'
p659
sS'Org_iJN746 IR237'
p660
S'FUMAC'
p661
sS'Org_iJN746 IR236'
p662
S'FTHFD'
p663
sS'Org_iJN746 IR235'
p664
S'FRUpts'
p665
sS'Org_iJN746 IR234'
p666
S'FORGLUIH'
p667
sS'Org_iJN746 IR307'
p668
S'HISTD'
p669
sS'Org_iJN746 IR306'
p670
S'HISDr'
p671
sS'Org_iJN746 IR305'
p672
S'HIBDkt'
p673
sS'Org_iJN746 IR304'
p674
S'HGNTOR'
p675
sS'Org_iJN746 IR303'
p676
S'HEX1'
p677
sS'Org_iJN746 IR302'
p678
S'HEMEOS'
p679
sS'Org_iJN746 IR301'
p680
S'HADPCOADH'
p681
sS'Org_iJN746 IR300'
p682
S'HACD7i'
p683
sS'Org_iJN746 ER90'
p684
S'orn_eExc'
p685
sS'Org_iJN746 IR309'
p686
S'HISTRS'
p687
sS'Org_iJN746 IR308'
p688
S'HISTP'
p689
sS'Org_iJN746 IR129'
p690
S'CHORS'
p691
sS'Org_iJN746 IR128'
p692
S'CHORM'
p693
sS'Org_iJN746 IR127'
p694
S'CHOLSabc'
p695
sS'Org_iJN746 IR126'
p696
S'CHOLSH'
p697
sS'Org_iJN746 IR125'
p698
S'CHOLD'
p699
sS'Org_iJN746 IR124'
p700
S'CHLt2pp'
p701
sS'Org_iJN746 IR123'
p702
S'CHLabcpp'
p703
sS'Org_iJN746 IR122'
p704
S'CFAS180G'
p705
sS'Org_iJN746 IR121'
p706
S'CFAS180E'
p707
sS'Org_iJN746 IR120'
p708
S'CFAS160G'
p709
sS'Org_iJN746 IR431'
p710
S'PAPPT3'
p711
sS'Org_iJN746 IR430'
p712
S'PANTS'
p713
sS'Org_iJN746 IR433'
p714
S'PC11M'
p715
sS'Org_iJN746 IR432'
p716
S'PC'
p717
sS'Org_iJN746 IR435'
p718
S'PC20M'
p719
sS'Org_iJN746 IR434'
p720
S'PC17M'
p721
sS'Org_iJN746 IR437'
p722
S'PC6YM'
p723
sS'Org_iJN746 IR436'
p724
S'PC6AR'
p725
sS'Org_iJN746 IR439'
p726
S'PCADYOX'
p727
sS'Org_iJN746 IR438'
p728
S'PC8XM'
p729
sS'Org_iJN746 RR148'
p730
S'GLCNt2rpp'
p731
sS'Org_iJN746 RR149'
p732
S'GLCNtex'
p733
sS'Org_iJN746 RR146'
p734
S'GHMT2r'
p735
sS'Org_iJN746 RR147'
p736
S'GK1'
p737
sS'Org_iJN746 RR144'
p738
S'GAt1'
p739
sS'Org_iJN746 RR145'
p740
S'GAt2pp'
p741
sS'Org_iJN746 RR142'
p742
S'GAPD'
p743
sS'Org_iJN746 RR143'
p744
S'GARFT'
p745
sS'Org_iJN746 RR140'
p746
S'GADktpp'
p747
sS'Org_iJN746 RR141'
p748
S'GALUi'
p749
sS'Org_iJN746 IR156'
p750
S'DASYN120'
p751
sS'Org_iJN746 IR157'
p752
S'DASYN160'
p753
sS'Org_iJN746 IR158'
p754
S'DASYN161'
p755
sS'Org_iJN746 IR159'
p756
S'DASYN180'
p757
sS'Org_iJN746 RevBR245'
p758
S'O2tex'
p759
sS'Org_iJN746 RevBR244'
p760
S'NO2tex'
p761
sS'Org_iJN746 RevBR247'
p762
S'OCBT'
p763
sS'Org_iJN746 RevBR246'
p764
S'O2tpp'
p765
sS'Org_iJN746 RevBR241'
p766
S'NI2tex'
p767
sS'Org_iJN746 RevBR240'
p768
S'NH4tpp'
p769
sS'Org_iJN746 RevBR243'
p770
S'NO2t2rpp'
p771
sS'Org_iJN746 RevBR242'
p772
S'NNATr'
p773
sS'Org_iJN746 RevBR249'
p774
S'OHPBAT'
p775
sS'Org_iJN746 RevBR248'
p776
S'OCTAtex'
p777
sS'Org_iJN746 RR55'
p778
S'AIRCr'
p779
sS'Org_iJN746 RR54'
p780
S'AICART'
p781
sS'Org_iJN746 RR57'
p782
S'AKGDb'
p783
sS'Org_iJN746 RR56'
p784
S'AKGDa'
p785
sS'Org_iJN746 RR51'
p786
S'ADSL1r'
p787
sS'Org_iJN746 RR50'
p788
S'ADPT2'
p789
sS'Org_iJN746 RR53'
p790
S'AGPR'
p791
sS'Org_iJN746 RR52'
p792
S'ADSL2r'
p793
sS'Org_iJN746 RR59'
p794
S'AKGtex'
p795
sS'Org_iJN746 RR58'
p796
S'AKGt2rpp'
p797
sS'Org_iJN746 RevBR11'
p798
g25
sS'Org_iJN746 RevBR10'
p799
g27
sS'Org_iJN746 RevBR13'
p800
g29
sS'Org_iJN746 RevBR12'
p801
g31
sS'Org_iJN746 RevBR15'
p802
g33
sS'Org_iJN746 RevBR14'
p803
g35
sS'Org_iJN746 IR208'
p804
S'ECOAH9ir'
p805
sS'Org_iJN746 IR209'
p806
S'EDA'
p807
sS'Org_iJN746 IR206'
p808
S'EAR80y'
p809
sS'Org_iJN746 IR207'
p810
S'ECOAH12'
p811
sS'Org_iJN746 IR204'
p812
S'EAR40y'
p813
sS'Org_iJN746 IR205'
p814
S'EAR60y'
p815
sS'Org_iJN746 IR202'
p816
S'EAR180y'
p817
sS'Org_iJN746 IR203'
p818
S'EAR181y'
p819
sS'Org_iJN746 IR200'
p820
S'EAR160y'
p821
sS'Org_iJN746 IR201'
p822
S'EAR161y'
p823
sS'Org_iJN746 IR338'
p824
S'KAS15'
p825
sS'Org_iJN746 IR339'
p826
S'KAT1'
p827
sS'Org_iJN746 IR332'
p828
S'INSH'
p829
sS'Org_iJN746 IR333'
p830
S'IPDPS'
p831
sS'Org_iJN746 IR330'
p832
S'ILEabcpp'
p833
sS'Org_iJN746 IR331'
p834
S'IMPD'
p835
sS'Org_iJN746 IR336'
p836
S'IZPN'
p837
sS'Org_iJN746 IR337'
p838
S'KAS14'
p839
sS'Org_iJN746 IR334'
p840
S'IPPS'
p841
sS'Org_iJN746 IR335'
p842
S'ISETACabcpp'
p843
sS'Org_iJN746 IR10'
p844
S'3HAD160'
p845
sS'Org_iJN746 IR11'
p846
S'3HAD161'
p847
sS'Org_iJN746 RevBR250'
p848
S'OIVD1r'
p849
sS'Org_iJN746 RevBR251'
p850
S'OMAIS'
p851
sS'Org_iJN746 IR14'
p852
S'3HAD40'
p853
sS'Org_iJN746 RevBR257'
p854
S'PACt3'
p855
sS'Org_iJN746 IR112'
p856
S'CACOAHA'
p857
sS'Org_iJN746 IR113'
p858
S'CAFFCOA'
p859
sS'Org_iJN746 IR110'
p860
S'BZDIOLDH'
p861
sS'Org_iJN746 IR111'
p862
S'BIOMASS_KT_TEMP'
p863
sS'Org_iJN746 IR116'
p864
S'CATDOX'
p865
sS'Org_iJN746 IR117'
p866
S'CBPS'
p867
sS'Org_iJN746 IR114'
p868
S'CAT'
p869
sS'Org_iJN746 IR115'
p870
S'CAT23DOX'
p871
sS'Org_iJN746 IR118'
p872
S'CDPMEK'
p873
sS'Org_iJN746 IR119'
p874
S'CFAS160E'
p875
sS'Org_iJN746 IR448'
p876
S'PE180abcpp'
p877
sS'Org_iJN746 IR449'
p878
S'PE181abcpp'
p879
sS'Org_iJN746 IR596'
p880
S'XAND'
p881
sS'Org_iJN746 IR597'
p882
S'XMO'
p883
sS'Org_iJN746 IR594'
p884
S'VNDH_3'
p885
sS'Org_iJN746 IR595'
p886
S'VNTDM'
p887
sS'Org_iJN746 IR592'
p888
S'VNDH'
p889
sS'Org_iJN746 IR593'
p890
S'VNDH_2'
p891
sS'Org_iJN746 IR590'
p892
S'VALTRS'
p893
sS'Org_iJN746 IR591'
p894
S'VALabcpp'
p895
sS'Org_iJN746 IR598'
p896
S'XTSNH'
p897
sS'Org_iJN746 IR599'
p898
S'pentso3abcpp'
p899
sS'Org_iJN746 RR151'
p900
S'GLUDy'
p901
sS'Org_iJN746 RR150'
p902
S'GLCtex'
p903
sS'Org_iJN746 RR153'
p904
S'GLUtex'
p905
sS'Org_iJN746 RR152'
p906
S'GLUR'
p907
sS'Org_iJN746 RR155'
p908
S'GLYALDtex'
p909
sS'Org_iJN746 RR154'
p910
S'GLYALDDr'
p911
sS'Org_iJN746 RR157'
p912
S'GLYBtex'
p913
sS'Org_iJN746 RR156'
p914
S'GLYALDtpp'
p915
sS'Org_iJN746 RR159'
p916
S'GLYCLTtex'
p917
sS'Org_iJN746 RR158'
p918
S'GLYCLTt2rpp'
p919
sS'Org_iJN746 RevBR30'
p920
S'ACACT1r'
p921
sS'Org_iJN746 ERR82'
p922
S'dad_5_cExc'
p923
sS'Org_iJN746 ERR83'
p924
S'lys__L_eExc'
p925
sS'Org_iJN746 ERR80'
p926
S'C141mclPHA_cExc'
p927
sS'Org_iJN746 ERR81'
p928
S'3oxoadp_eExc'
p929
sS'Org_iJN746 ERR86'
p930
S'isetac_eExc'
p931
sS'Org_iJN746 ERR87'
p932
S'ddca_eExc'
p933
sS'Org_iJN746 ERR84'
p934
S'leu__L_eExc'
p935
sS'Org_iJN746 ERR85'
p936
S'crn_eExc'
p937
sS'Org_iJN746 ERR88'
p938
S'mclPHAg_cExc'
p939
sS'Org_iJN746 ERR89'
p940
S'pac_eExc'
p941
sS'Org_iJN746 ERR1'
p942
S'cobalt2_eExc'
p943
sS'Org_iJN746 ERR9'
p944
S'dca_eExc'
p945
sS'Org_iJN746 ERR8'
p946
S'C120mclPHA_cExc'
p947
sS'Org_iJN746 RevBR1'
p948
S'2DHGLCNtex'
p949
sS'Org_iJN746 RevBR3'
p950
S'34DHCINMtpp'
p951
sS'Org_iJN746 RevBR2'
p952
S'34DHCINMtex'
p953
sS'Org_iJN746 RevBR5'
p954
S'3HAACOAT120'
p955
sS'Org_iJN746 RevBR4'
p956
S'3HAACOAT100'
p957
sS'Org_iJN746 RevBR7'
p958
S'3HAACOAT140'
p959
sS'Org_iJN746 RevBR6'
p960
S'3HAACOAT121'
p961
sS'Org_iJN746 RevBR9'
p962
S'3HAACOAT60'
p963
sS'Org_iJN746 RevBR8'
p964
S'3HAACOAT141'
p965
sS'Org_iJN746 IR18'
p966
S'3MBZALDH'
p967
sS'Org_iJN746 IR19'
p968
S'3MBZDH'
p969
sS'Org_iJN746 RevBR258'
p970
S'PACt1'
p971
sS'Org_iJN746 RevBR259'
p972
S'PDHbr'
p973
sS'Org_iJN746 RevBR252'
p974
S'ORNTAC'
p975
sS'Org_iJN746 RevBR253'
p976
S'ORNtex'
p977
sS'Org_iJN746 IR12'
p978
S'3HAD180'
p979
sS'Org_iJN746 IR13'
p980
S'3HAD181'
p981
sS'Org_iJN746 RevBR256'
p982
S'PACCOAL'
p983
sS'Org_iJN746 IR15'
p984
S'3HAD60'
p985
sS'Org_iJN746 RevBR254'
p986
S'ORPT'
p987
sS'Org_iJN746 IR17'
p988
S'3HBCOAHL'
p989
sS'Org_iJN746 RR42'
p990
S'ACONCtex'
p991
sS'Org_iJN746 RR43'
p992
S'ACONT'
p993
sS'Org_iJN746 RR40'
p994
S'ACOAD7f'
p995
sS'Org_iJN746 RR41'
p996
S'ACOATA'
p997
sS'Org_iJN746 RR46'
p998
S'ACOTA'
p999
sS'Org_iJN746 RR47'
p1000
S'ACS'
p1001
sS'Org_iJN746 RR44'
p1002
S'ACONTa'
p1003
sS'Org_iJN746 RR45'
p1004
S'ACONTb'
p1005
sS'Org_iJN746 RR48'
p1006
g522
sS'Org_iJN746 RR49'
p1007
S'ADK1'
p1008
sS'Org_iJN746 RevBR24'
p1009
S'4OT'
p1010
sS'Org_iJN746 RevBR25'
p1011
S'4OT2'
p1012
sS'Org_iJN746 RevBR26'
p1013
S'AADSACYCL'
p1014
sS'Org_iJN746 RevBR27'
p1015
S'AATA'
p1016
sS'Org_iJN746 RevBR20'
p1017
S'3OXOADPt_pp'
p1018
sS'Org_iJN746 RevBR21'
p1019
S'3_4DHBZ1t_pp'
p1020
sS'Org_iJN746 RevBR22'
p1021
S'3_4DHBZt2'
p1022
sS'Org_iJN746 RevBR23'
p1023
S'4HBZtex'
p1024
sS'Org_iJN746 RevBR28'
p1025
S'ABTA'
p1026
sS'Org_iJN746 RevBR29'
p1027
S'ABUTtex'
p1028
sS'Org_iJN746 IR329'
p1029
S'ILETRS'
p1030
sS'Org_iJN746 IR328'
p1031
S'IGPS'
p1032
sS'Org_iJN746 IR325'
p1033
S'ICL'
p1034
sS'Org_iJN746 IR324'
p1035
S'HXPRT'
p1036
sS'Org_iJN746 IR327'
p1037
S'IGPDH'
p1038
sS'Org_iJN746 IR326'
p1039
S'IG3PS'
p1040
sS'Org_iJN746 IR321'
p1041
S'HPPK'
p1042
sS'Org_iJN746 IR320'
p1043
S'HOPNTAL2'
p1044
sS'Org_iJN746 IR323'
p1045
S'HXAND'
p1046
sS'Org_iJN746 IR322'
p1047
S'HSK'
p1048
sS'Org_iJN746 IR457'
p1049
S'PGPP120pp'
p1050
sS'Org_iJN746 IR456'
p1051
S'PGPP120'
p1052
sS'Org_iJN746 IR455'
p1053
S'PGP181abcpp'
p1054
sS'Org_iJN746 IR106'
p1055
S'BHMT'
p1056
sS'Org_iJN746 IR101'
p1057
S'ASPTRS'
p1058
sS'Org_iJN746 IR100'
p1059
S'ASPT'
p1060
sS'Org_iJN746 IR451'
p1061
S'PGP120abcpp'
p1062
sS'Org_iJN746 IR102'
p1063
S'ASPabcpp'
p1064
sS'Org_iJN746 IR109'
p1065
S'BZDH'
p1066
sS'Org_iJN746 IR108'
p1067
S'BZALDH'
p1068
sS'Org_iJN746 IR459'
p1069
S'PGPP160pp'
p1070
sS'Org_iJN746 IR458'
p1071
S'PGPP160'
p1072
sS'Org_iJN746 IR211'
p1073
S'ETHSO3abcpp'
p1074
sS'Org_iJN746 IR105'
p1075
S'BETALDHx'
p1076
sS'Org_iJN746 IR213'
p1077
S'FACOAL120t2pp'
p1078
sS'Org_iJN746 IR212'
p1079
S'FACOAL100t2pp'
p1080
sS'Org_iJN746 IR215'
p1081
S'FACOAL160t2pp'
p1082
sS'Org_iJN746 IR214'
p1083
S'FACOAL140t2pp'
p1084
sS'Org_iJN746 IR217'
p1085
S'FACOAL80t2pp'
p1086
sS'Org_iJN746 IR104'
p1087
S'AST'
p1088
sS'Org_iJN746 IR219'
p1089
S'FBP'
p1090
sS'Org_iJN746 IR218'
p1091
S'FALDDH'
p1092
sS'Org_iJN746 IR107'
p1093
S'BZ12DOX'
p1094
sS'Org_iJN746 IR454'
p1095
S'PGP180abcpp'
p1096
sS'Org_iJN746 IR453'
p1097
S'PGP161abcpp'
p1098
sS'Org_iJN746 IR452'
p1099
S'PGP160abcpp'
p1100
sS'Org_iJN746 IR103'
p1101
S'ASPt2_2pp'
p1102
sS'Org_iJN746 IR450'
p1103
S'PGL'
p1104
sS'Org_iJN746 IR589'
p1105
S'UREA'
p1106
sS'Org_iJN746 IR588'
p1107
S'URCN'
p1108
sS'Org_iJN746 IR581'
p1109
S'UNK3'
p1110
sS'Org_iJN746 IR580'
p1111
S'UGMDDS'
p1112
sS'Org_iJN746 IR583'
p1113
S'UPP3S'
p1114
sS'Org_iJN746 IR582'
p1115
S'UPP3MT'
p1116
sS'Org_iJN746 IR585'
p1117
S'UPPDC2'
p1118
sS'Org_iJN746 IR584'
p1119
S'UPPDC1'
p1120
sS'Org_iJN746 IR587'
p1121
S'UPPRT'
p1122
sS'Org_iJN746 IR586'
p1123
S'UPPN'
p1124
sS'Org_iJN746 RR124'
p1125
S'ECOAH4'
p1126
sS'Org_iJN746 RR125'
p1127
S'ECOAH5'
p1128
sS'Org_iJN746 RR126'
p1129
S'ECOAH6'
p1130
sS'Org_iJN746 RR127'
p1131
S'ECOAH7'
p1132
sS'Org_iJN746 RR120'
p1133
S'E4PD'
p1134
sS'Org_iJN746 RR121'
p1135
S'ECOAH1'
p1136
sS'Org_iJN746 RR122'
p1137
S'ECOAH2'
p1138
sS'Org_iJN746 IR210'
p1139
S'EDD'
p1140
sS'Org_iJN746 RR128'
p1141
S'ENO'
p1142
sS'Org_iJN746 RR129'
p1143
S'ETHSO3tex'
p1144
sS'Org_iJN746 IR216'
p1145
S'FACOAL60t2pp'
p1146
sS'Org_iJN746 ERR95'
p1147
S'ptal_cExc'
p1148
sS'Org_iJN746 ERR94'
p1149
S'glyald_eExc'
p1150
sS'Org_iJN746 ERR97'
p1151
S'h2_eExc'
p1152
sS'Org_iJN746 ERR96'
p1153
S'tol_eExc'
p1154
sS'Org_iJN746 ERR91'
p1155
S'dna_cExc'
p1156
sS'Org_iJN746 ERR90'
p1157
S'orn_eExc'
p1158
sS'Org_iJN746 ERR93'
p1159
S'nh4_eExc'
p1160
sS'Org_iJN746 ERR92'
p1161
S'acon_C_eExc'
p1162
sS'Org_iJN746 ERR99'
p1163
S'pro__L_eExc'
p1164
sS'Org_iJN746 ERR98'
p1165
S'vanln_eExc'
p1166
sS'Org_iJN746 RR238'
p1167
g383
sS'Org_iJN746 RR239'
p1168
g385
sS'Org_iJN746 RR230'
p1169
S'NAtex'
p1170
sS'Org_iJN746 RR231'
p1171
S'NDPK1'
p1172
sS'Org_iJN746 RR232'
p1173
S'NDPK2'
p1174
sS'Org_iJN746 RR233'
p1175
S'NDPK3'
p1176
sS'Org_iJN746 RR234'
p1177
S'NDPK4'
p1178
sS'Org_iJN746 RR235'
p1179
S'NDPK5'
p1180
sS'Org_iJN746 RR236'
p1181
g394
sS'Org_iJN746 RR237'
p1182
g398
sS'Org_iJN746 ER6'
p1183
S'glu__L_eExc'
p1184
sS'Org_iJN746 ER7'
p1185
S'na1_eExc'
p1186
sS'Org_iJN746 RevBR319'
p1187
S'T2DECAI'
p1188
sS'Org_iJN746 RevBR318'
p1189
S'SUCOAS'
p1190
sS'Org_iJN746 RevBR313'
p1191
S'SO4tex'
p1192
sS'Org_iJN746 RevBR312'
p1193
S'SO4t4_2'
p1194
sS'Org_iJN746 RevBR311'
p1195
S'SHSL4r'
p1196
sS'Org_iJN746 RevBR310'
p1197
S'SHSL2r'
p1198
sS'Org_iJN746 RevBR317'
p1199
S'SUCD1'
p1200
sS'Org_iJN746 RevBR316'
p1201
S'SUCCtex'
p1202
sS'Org_iJN746 RevBR315'
p1203
S'SSALy'
p1204
sS'Org_iJN746 RevBR314'
p1205
S'SPMDtex'
p1206
sS'Org_iJN746 ER75'
p1207
S'taur_eExc'
p1208
sS'Org_iJN746 ER8'
p1209
S'C120mclPHA_cExc'
p1210
sS'Org_iJN746 RR286'
p1211
g381
sS'Org_iJN746 IR25'
p1212
S'3OAR181'
p1213
sS'Org_iJN746 IR24'
p1214
S'3OAR161'
p1215
sS'Org_iJN746 IR27'
p1216
S'3OAS120'
p1217
sS'Org_iJN746 IR26'
p1218
S'3OAS100'
p1219
sS'Org_iJN746 IR21'
p1220
S'3OADPCOAT'
p1221
sS'Org_iJN746 IR20'
p1222
S'3MCAT23DOX'
p1223
sS'Org_iJN746 IR23'
p1224
S'3OAR141'
p1225
sS'Org_iJN746 RevBR228'
p1226
S'NACt1pp'
p1227
sS'Org_iJN746 RevBR227'
p1228
S'M_Xylt1'
p1229
sS'Org_iJN746 RevBR226'
p1230
S'M_XYLtpp'
p1231
sS'Org_iJN746 RevBR225'
p1232
S'MUCLI'
p1233
sS'Org_iJN746 RevBR224'
p1234
S'MUCCYCI'
p1235
sS'Org_iJN746 RevBR223'
p1236
S'MHPGLUT'
p1237
sS'Org_iJN746 RevBR222'
p1238
S'MTHFD'
p1239
sS'Org_iJN746 RevBR221'
p1240
S'MTHFC'
p1241
sS'Org_iJN746 RevBR220'
p1242
S'MSULR'
p1243
sS'Org_iJN746 RR99'
p1244
S'CYSTGL'
p1245
sS'Org_iJN746 RR98'
p1246
S'CRNtex'
p1247
sS'Org_iJN746 RevBR39'
p1248
S'ACOAD6f'
p1249
sS'Org_iJN746 RevBR38'
p1250
S'ACOAD5f'
p1251
sS'Org_iJN746 RR91'
p1252
S'CLPNS180pp'
p1253
sS'Org_iJN746 RR90'
p1254
S'CLPNS161pp'
p1255
sS'Org_iJN746 RevBR31'
p1256
S'ACALD'
p1257
sS'Org_iJN746 RR92'
p1258
S'CLPNS181pp'
p1259
sS'Org_iJN746 RR95'
p1260
S'COBALT2tex'
p1261
sS'Org_iJN746 RR94'
p1262
S'CO2tpp'
p1263
sS'Org_iJN746 RR97'
p1264
S'CONFRLtpp'
p1265
sS'Org_iJN746 RR96'
p1266
S'CONFRLtex'
p1267
sS'Org_iJN746 RevBR133'
p1268
S'FERtpp'
p1269
sS'Org_iJN746 RevBR132'
p1270
S'FERtex'
p1271
sS'Org_iJN746 RevBR131'
p1272
S'FE2t'
p1273
sS'Org_iJN746 RevBR130'
p1274
S'FBA'
p1275
sS'Org_iJN746 RevBR137'
p1276
S'G3PD2'
p1277
sS'Org_iJN746 IR255'
p1278
S'GLCDpp'
p1279
sS'Org_iJN746 RevBR135'
p1280
S'FUM'
p1281
sS'Org_iJN746 RevBR134'
p1282
S'FRUK'
p1283
sS'Org_iJN746 RevBR139'
p1284
S'G6PI'
p1285
sS'Org_iJN746 RevBR138'
p1286
S'G5SADs'
p1287
sS'Org_iJN746 IR254'
p1288
S'GF6PTA'
p1289
sS'Org_iJN746 IR468'
p1290
S'PGSA161'
p1291
sS'Org_iJN746 IR469'
p1292
S'PGSA180'
p1293
sS'Org_iJN746 IR462'
p1294
S'PGPP180'
p1295
sS'Org_iJN746 IR463'
p1296
S'PGPP180pp'
p1297
sS'Org_iJN746 IR460'
p1298
S'PGPP161'
p1299
sS'Org_iJN746 IR461'
p1300
S'PGPP161pp'
p1301
sS'Org_iJN746 IR466'
p1302
S'PGSA120'
p1303
sS'Org_iJN746 IR467'
p1304
S'PGSA160'
p1305
sS'Org_iJN746 IR464'
p1306
S'PGPP181'
p1307
sS'Org_iJN746 IR465'
p1308
S'PGPP181pp'
p1309
sS'Org_iJN746 IR264'
p1310
S'GLUDC'
p1311
sS'Org_iJN746 IR265'
p1312
S'GLUN'
p1313
sS'Org_iJN746 IR266'
p1314
S'GLUPRT'
p1315
sS'Org_iJN746 IR267'
p1316
S'GLUSy'
p1317
sS'Org_iJN746 IR260'
p1318
S'GLNTRAT'
p1319
sS'Org_iJN746 IR261'
p1320
S'GLNTRS'
p1321
sS'Org_iJN746 IR262'
p1322
S'GLU5K'
p1323
sS'Org_iJN746 IR263'
p1324
S'GLUCYS'
p1325
sS'Org_iJN746 IR268'
p1326
S'GLUTCOADHc'
p1327
sS'Org_iJN746 IR269'
p1328
S'GLUTRR'
p1329
sS'Org_iJN746 IR78'
p1330
S'ALATRS'
p1331
sS'Org_iJN746 IR79'
p1332
S'ALCD2ir'
p1333
sS'Org_iJN746 IR76'
p1334
S'AGPAT181'
p1335
sS'Org_iJN746 IR77'
p1336
S'AKGDH'
p1337
sS'Org_iJN746 RR137'
p1338
g1277
sS'Org_iJN746 RR136'
p1339
S'FUMtex'
p1340
sS'Org_iJN746 RR135'
p1341
g1281
sS'Org_iJN746 RR134'
p1342
g1283
sS'Org_iJN746 RR133'
p1343
g1269
sS'Org_iJN746 RR132'
p1344
g1271
sS'Org_iJN746 RR131'
p1345
g1273
sS'Org_iJN746 RR130'
p1346
g1275
sS'Org_iJN746 RR139'
p1347
g1285
sS'Org_iJN746 RR138'
p1348
g1287
sS'Org_iJN746 RR123'
p1349
S'ECOAH3'
p1350
sS'Org_iJN746 IR480'
p1351
S'PHETRS'
p1352
sS'Org_iJN746 IR481'
p1353
S'PIuabcpp'
p1354
sS'Org_iJN746 IR482'
p1355
S'PMDPHT'
p1356
sS'Org_iJN746 IR483'
p1357
S'PMPK'
p1358
sS'Org_iJN746 IR484'
p1359
S'PNTK'
p1360
sS'Org_iJN746 IR485'
p1361
S'PPA'
p1362
sS'Org_iJN746 IR486'
p1363
S'PPBNGS'
p1364
sS'Org_iJN746 IR487'
p1365
S'PPC'
p1366
sS'Org_iJN746 IR488'
p1367
S'PPCDC'
p1368
sS'Org_iJN746 IR489'
p1369
S'PPGPPDP'
p1370
sS'Org_iJN746 ERR68'
p1371
S'C140mclPHA_cExc'
p1372
sS'Org_iJN746 ERR69'
p1373
S'chols_eExc'
p1374
sS'Org_iJN746 ERR60'
p1375
S'ni2_eExc'
p1376
sS'Org_iJN746 ERR61'
p1377
S'nac_eExc'
p1378
sS'Org_iJN746 ERR62'
p1379
S'ile__L_eExc'
p1380
sS'Org_iJN746 ERR63'
p1381
S'confrl_eExc'
p1382
sS'Org_iJN746 ERR64'
p1383
S'pqqh2_cExc'
p1384
sS'Org_iJN746 ERR65'
p1385
S'arg__L_eExc'
p1386
sS'Org_iJN746 ERR66'
p1387
S'h_eExc'
p1388
sS'Org_iJN746 ERR67'
p1389
S'pentso3_eExc'
p1390
sS'Org_iJN746 RR229'
p1391
S'NACtex'
p1392
sS'Org_iJN746 RR228'
p1393
g1227
sS'Org_iJN746 RR223'
p1394
g1237
sS'Org_iJN746 RR222'
p1395
g1239
sS'Org_iJN746 RR221'
p1396
g1241
sS'Org_iJN746 RR220'
p1397
g1243
sS'Org_iJN746 RR227'
p1398
g1229
sS'Org_iJN746 RR226'
p1399
g1231
sS'Org_iJN746 RR225'
p1400
g1233
sS'Org_iJN746 RR224'
p1401
g1235
sS'Org_iJN746 IR545'
p1402
S'SELMETAT'
p1403
sS'Org_iJN746 IR544'
p1404
S'SDPDS'
p1405
sS'Org_iJN746 IR547'
p1406
S'SGDS'
p1407
sS'Org_iJN746 IR546'
p1408
S'SERTRS'
p1409
sS'Org_iJN746 IR541'
p1410
S'SADH'
p1411
sS'Org_iJN746 IR540'
p1412
S'RZ5PP'
p1413
sS'Org_iJN746 RevBR308'
p1414
S'SERtex'
p1415
sS'Org_iJN746 RevBR309'
p1416
S'SHK3Dr'
p1417
sS'Org_iJN746 IR543'
p1418
S'SARCOX'
p1419
sS'Org_iJN746 RevBR300'
p1420
S'RPE'
p1421
sS'Org_iJN746 RevBR301'
p1422
S'RPI'
p1423
sS'Org_iJN746 RevBR302'
p1424
S'SCYSSL'
p1425
sS'Org_iJN746 IR542'
p1426
S'SADT'
p1427
sS'Org_iJN746 RevBR304'
p1428
S'SERAT'
p1429
sS'Org_iJN746 RevBR305'
p1430
S'SERD_L'
p1431
sS'Org_iJN746 RevBR306'
p1432
S'SER_AL'
p1433
sS'Org_iJN746 RevBR307'
p1434
S'SERt2rpp'
p1435
sS'Org_iJN746 IR32'
p1436
S'3OAS161'
p1437
sS'Org_iJN746 IR33'
p1438
S'3OAS180'
p1439
sS'Org_iJN746 IR30'
p1440
S'3OAS141'
p1441
sS'Org_iJN746 IR31'
p1442
S'3OAS160'
p1443
sS'Org_iJN746 IR36'
p1444
S'3OAS80'
p1445
sS'Org_iJN746 IR37'
p1446
S'3OXCOAT'
p1447
sS'Org_iJN746 IR34'
p1448
S'3OAS181'
p1449
sS'Org_iJN746 IR35'
p1450
S'3OAS60'
p1451
sS'Org_iJN746 RevBR234'
p1452
g1178
sS'Org_iJN746 RevBR235'
p1453
g1180
sS'Org_iJN746 IR38'
p1454
S'4CMCOAS'
p1455
sS'Org_iJN746 IR39'
p1456
S'4CMLCL_kt'
p1457
sS'Org_iJN746 RevBR230'
p1458
g1170
sS'Org_iJN746 RevBR231'
p1459
g1172
sS'Org_iJN746 RevBR232'
p1460
g1174
sS'Org_iJN746 RevBR233'
p1461
g1176
sS'Org_iJN746 RR86'
p1462
S'CITt_kt'
p1463
sS'Org_iJN746 RR87'
p1464
S'CITtex'
p1465
sS'Org_iJN746 RR84'
p1466
S'CHOLS_ex'
p1467
sS'Org_iJN746 RR85'
p1468
S'DAPE'
p1469
sS'Org_iJN746 RR82'
p1470
S'CBMKr'
p1471
sS'Org_iJN746 RR83'
p1472
S'CHLtex'
p1473
sS'Org_iJN746 RR80'
p1474
S'CATECHOLtex'
p1475
sS'Org_iJN746 RevBR49'
p1476
g1008
sS'Org_iJN746 RevBR46'
p1477
g999
sS'Org_iJN746 RevBR47'
p1478
g1001
sS'Org_iJN746 RevBR44'
p1479
g1003
sS'Org_iJN746 RevBR45'
p1480
g1005
sS'Org_iJN746 RevBR42'
p1481
g991
sS'Org_iJN746 RevBR43'
p1482
g993
sS'Org_iJN746 RevBR40'
p1483
g995
sS'Org_iJN746 RevBR41'
p1484
g997
sS'Org_iJN746 RevBR120'
p1485
g1134
sS'Org_iJN746 RevBR121'
p1486
g1136
sS'Org_iJN746 RevBR122'
p1487
g1138
sS'Org_iJN746 RevBR123'
p1488
g1350
sS'Org_iJN746 RevBR124'
p1489
g1126
sS'Org_iJN746 RevBR125'
p1490
g1128
sS'Org_iJN746 RevBR126'
p1491
g1130
sS'Org_iJN746 RevBR127'
p1492
g1132
sS'Org_iJN746 RevBR128'
p1493
g1142
sS'Org_iJN746 RevBR129'
p1494
g1144
sS'Org_iJN746 IR479'
p1495
S'PHETHPTOX'
p1496
sS'Org_iJN746 IR478'
p1497
S'PHAPC80'
p1498
sS'Org_iJN746 IR475'
p1499
S'PHAPC140'
p1500
sS'Org_iJN746 IR474'
p1501
S'PHAPC121'
p1502
sS'Org_iJN746 IR477'
p1503
S'PHAPC60'
p1504
sS'Org_iJN746 IR476'
p1505
S'PHAPC141'
p1506
sS'Org_iJN746 IR471'
p1507
S'PHACOAOR'
p1508
sS'Org_iJN746 IR470'
p1509
S'PGSA181'
p1510
sS'Org_iJN746 IR473'
p1511
S'PHAPC120'
p1512
sS'Org_iJN746 IR472'
p1513
S'PHAPC100'
p1514
sS'Org_iJN746 IR277'
p1515
S'GLYCL_2'
p1516
sS'Org_iJN746 IR276'
p1517
S'GLYCL'
p1518
sS'Org_iJN746 IR275'
p1519
S'GLYCK'
p1520
sS'Org_iJN746 IR274'
p1521
S'GLYBabcpp'
p1522
sS'Org_iJN746 IR273'
p1523
S'GLXCL'
p1524
sS'Org_iJN746 IR272'
p1525
S'GLUt4pp'
p1526
sS'Org_iJN746 IR271'
p1527
S'GLUabcpp'
p1528
sS'Org_iJN746 IR270'
p1529
S'GLUTRS'
p1530
sS'Org_iJN746 IR279'
p1531
S'GLYK'
p1532
sS'Org_iJN746 IR278'
p1533
S'GLYCTO1'
p1534
sS'Org_iJN746 IR538'
p1535
S'RNDR3'
p1536
sS'Org_iJN746 IR539'
p1537
S'RNDR4'
p1538
sS'Org_iJN746 RR108'
p1539
S'DHFR'
p1540
sS'Org_iJN746 RR109'
p1541
S'DHORDi'
p1542
sS'Org_iJN746 RR102'
p1543
S'CYTK2'
p1544
sS'Org_iJN746 RR103'
p1545
S'DABAAT'
p1546
sS'Org_iJN746 RR100'
p1547
S'CYStex'
p1548
sS'Org_iJN746 RR101'
p1549
S'CYTK1'
p1550
sS'Org_iJN746 RR106'
p1551
S'DDCAtexi'
p1552
sS'Org_iJN746 RR107'
p1553
S'DGK1'
p1554
sS'Org_iJN746 RR104'
p1555
S'DADK'
p1556
sS'Org_iJN746 RR105'
p1557
S'DCAtex'
p1558
sS'Org_iJN746 IR288'
p1559
S'GTPCI'
p1560
sS'Org_iJN746 IR289'
p1561
S'GTPCII'
p1562
sS'Org_iJN746 IR493'
p1563
S'PPPGO'
p1564
sS'Org_iJN746 IR492'
p1565
S'PPNDH'
p1566
sS'Org_iJN746 IR491'
p1567
S'PPND'
p1568
sS'Org_iJN746 IR490'
p1569
S'PPNCL'
p1570
sS'Org_iJN746 IR497'
p1571
S'PRAGSr'
p1572
sS'Org_iJN746 IR496'
p1573
S'PPTGS_KT'
p1574
sS'Org_iJN746 IR495'
p1575
S'PPS'
p1576
sS'Org_iJN746 IR494'
p1577
S'PPRDNDH'
p1578
sS'Org_iJN746 IR499'
p1579
S'PRAMPC'
p1580
sS'Org_iJN746 IR498'
p1581
S'PRAIS'
p1582
sS'Org_iJN746 IR22'
p1583
S'3OAR121'
p1584
sS'Org_iJN746 ERR79'
p1585
S'dna5mtc_cExc'
p1586
sS'Org_iJN746 ERR78'
p1587
S'so4_eExc'
p1588
sS'Org_iJN746 ERR73'
p1589
S'mhpglu_cExc'
p1590
sS'Org_iJN746 ERR72'
p1591
S'co2_eExc'
p1592
sS'Org_iJN746 ERR71'
p1593
S'tsul_eExc'
p1594
sS'Org_iJN746 ERR70'
p1595
S'val__L_eExc'
p1596
sS'Org_iJN746 ERR77'
p1597
S'lac__D_eExc'
p1598
sS'Org_iJN746 ERR76'
p1599
S'm_xyl_eExc'
p1600
sS'Org_iJN746 ERR75'
p1601
S'taur_eExc'
p1602
sS'Org_iJN746 ERR74'
p1603
S'2dhglcn_eExc'
p1604
sS'Org_iJN746 RR218'
p1605
S'MICITDr'
p1606
sS'Org_iJN746 RR219'
p1607
S'MSO3tex'
p1608
sS'Org_iJN746 RR216'
p1609
S'METS'
p1610
sS'Org_iJN746 RR217'
p1611
S'METtex'
p1612
sS'Org_iJN746 RR214'
p1613
S'MDH'
p1614
sS'Org_iJN746 RR215'
p1615
S'AHSERL2'
p1616
sS'Org_iJN746 RR212'
p1617
S'MCITL2'
p1618
sS'Org_iJN746 RR213'
p1619
S'MCOATA'
p1620
sS'Org_iJN746 RR210'
p1621
S'MALEI'
p1622
sS'Org_iJN746 RR211'
p1623
S'MALtex'
p1624
sS'Org_iJN746 RevBR339'
p1625
S'TYRt2rpp'
p1626
sS'Org_iJN746 RevBR338'
p1627
S'TYRTA'
p1628
sS'Org_iJN746 RevBR335'
p1629
S'TRSARr'
p1630
sS'Org_iJN746 RevBR334'
p1631
S'TRPS3'
p1632
sS'Org_iJN746 RevBR337'
p1633
S'TTDCAtexi'
p1634
sS'Org_iJN746 RevBR336'
p1635
S'TSULtex'
p1636
sS'Org_iJN746 RevBR331'
p1637
S'TOLtpp'
p1638
sS'Org_iJN746 RevBR330'
p1639
S'TOLtex'
p1640
sS'Org_iJN746 RevBR333'
p1641
S'TRPS1'
p1642
sS'Org_iJN746 RevBR332'
p1643
S'TPI'
p1644
sS'Org_iJN746 RevBR201'
p1645
S'ACACT6r'
p1646
sS'Org_iJN746 RevBR200'
p1647
S'ACACT5r'
p1648
sS'Org_iJN746 RevBR203'
p1649
S'LDH_D'
p1650
sS'Org_iJN746 RevBR202'
p1651
S'ACACT7r'
p1652
sS'Org_iJN746 RevBR205'
p1653
S'LEUtex'
p1654
sS'Org_iJN746 RevBR204'
p1655
S'LEUTA'
p1656
sS'Org_iJN746 RevBR207'
p1657
S'LYStex'
p1658
sS'Org_iJN746 RevBR206'
p1659
S'LYSRC'
p1660
sS'Org_iJN746 RevBR209'
p1661
S'L_LACtex'
p1662
sS'Org_iJN746 RevBR208'
p1663
S'L_LACt2rpp'
p1664
sS'Org_iJN746 ER14'
p1665
S'ttdca_eExc'
p1666
sS'Org_iJN746 ER15'
p1667
S'spmd_eExc'
p1668
sS'Org_iJN746 ER16'
p1669
S'2ddglcn_eExc'
p1670
sS'Org_iJN746 ER17'
p1671
S'fru_eExc'
p1672
sS'Org_iJN746 ER10'
p1673
S'hxa_eExc'
p1674
sS'Org_iJN746 ER11'
p1675
S'chol_eExc'
p1676
sS'Org_iJN746 ER12'
p1677
S'h2o_eExc'
p1678
sS'Org_iJN746 ER13'
p1679
S'hdca_eExc'
p1680
sS'Org_iJN746 ER18'
p1681
S'cys__L_eExc'
p1682
sS'Org_iJN746 ER19'
p1683
S'icit_eExc'
p1684
sS'Org_iJN746 RevBR59'
p1685
g795
sS'Org_iJN746 RevBR58'
p1686
g797
sS'Org_iJN746 RevBR55'
p1687
g779
sS'Org_iJN746 RevBR54'
p1688
g781
sS'Org_iJN746 RevBR57'
p1689
g783
sS'Org_iJN746 RevBR56'
p1690
g785
sS'Org_iJN746 RevBR51'
p1691
g787
sS'Org_iJN746 RevBR50'
p1692
g789
sS'Org_iJN746 RevBR53'
p1693
g791
sS'Org_iJN746 RevBR52'
p1694
g793
sS'Org_iJN746 RevBR115'
p1695
S'DNAMTn2r'
p1696
sS'Org_iJN746 RevBR114'
p1697
S'DMGDH'
p1698
sS'Org_iJN746 RevBR117'
p1699
S'DURAD'
p1700
sS'Org_iJN746 RevBR116'
p1701
S'DTMPK'
p1702
sS'Org_iJN746 RevBR111'
p1703
S'DHQTi'
p1704
sS'Org_iJN746 RevBR110'
p1705
S'DHORTS'
p1706
sS'Org_iJN746 RevBR113'
p1707
S'DLYSPYRAT'
p1708
sS'Org_iJN746 RevBR112'
p1709
S'DLYSOXGAT'
p1710
sS'Org_iJN746 RevBR119'
p1711
S'D_LACtex'
p1712
sS'Org_iJN746 RevBR118'
p1713
S'D_LACt2pp'
p1714
sS'Org_iJN746 IR398'
p1715
S'NTD4pp'
p1716
sS'Org_iJN746 IR399'
p1717
S'NTD5'
p1718
sS'Org_iJN746 IR394'
p1719
S'NTD2pp'
p1720
sS'Org_iJN746 IR395'
p1721
S'NTD3'
p1722
sS'Org_iJN746 IR396'
p1723
S'NTD3pp'
p1724
sS'Org_iJN746 IR397'
p1725
S'NTD4'
p1726
sS'Org_iJN746 IR390'
p1727
S'NTD10pp'
p1728
sS'Org_iJN746 IR391'
p1729
S'NTD11'
p1730
sS'Org_iJN746 IR392'
p1731
S'NTD11pp'
p1732
sS'Org_iJN746 IR393'
p1733
S'NTD2'
p1734
sS'Org_iJN746 IR248'
p1735
S'G6PBDH'
p1736
sS'Org_iJN746 IR249'
p1737
S'G6PDH2r'
p1738
sS'Org_iJN746 IR242'
p1739
S'G3PAT160'
p1740
sS'Org_iJN746 IR243'
p1741
S'G3PAT161'
p1742
sS'Org_iJN746 IR240'
p1743
S'G1SAT'
p1744
sS'Org_iJN746 IR241'
p1745
S'G3PAT120'
p1746
sS'Org_iJN746 IR246'
p1747
S'G3PD'
p1748
sS'Org_iJN746 IR247'
p1749
S'G5SD'
p1750
sS'Org_iJN746 IR244'
p1751
S'G3PAT180'
p1752
sS'Org_iJN746 IR245'
p1753
S'G3PAT181'
p1754
sS'Org_iJN746 RR119'
p1755
g1712
sS'Org_iJN746 RR118'
p1756
g1714
sS'Org_iJN746 RR115'
p1757
g1696
sS'Org_iJN746 RR114'
p1758
g1698
sS'Org_iJN746 RR117'
p1759
g1700
sS'Org_iJN746 RR116'
p1760
g1702
sS'Org_iJN746 RR111'
p1761
g1704
sS'Org_iJN746 RR110'
p1762
g1706
sS'Org_iJN746 RR113'
p1763
g1708
sS'Org_iJN746 RR112'
p1764
g1710
sS'Org_iJN746 RR201'
p1765
g1646
sS'Org_iJN746 RR200'
p1766
g1648
sS'Org_iJN746 RR203'
p1767
g1650
sS'Org_iJN746 RR202'
p1768
g1652
sS'Org_iJN746 RR205'
p1769
g1654
sS'Org_iJN746 RR204'
p1770
g1656
sS'Org_iJN746 RR207'
p1771
g1658
sS'Org_iJN746 RR206'
p1772
g1660
sS'Org_iJN746 RR209'
p1773
g1662
sS'Org_iJN746 RR208'
p1774
g1664
sS'Org_iJN746 ERR48'
p1775
S'C121mclPHA_cExc'
p1776
sS'Org_iJN746 ERR49'
p1777
S'C80mclPHA_cExc'
p1778
sS'Org_iJN746 ERR46'
p1779
S'mal__L_eExc'
p1780
sS'Org_iJN746 ERR47'
p1781
S'his__L_eExc'
p1782
sS'Org_iJN746 ERR44'
p1783
S'thr__L_eExc'
p1784
sS'Org_iJN746 ERR45'
p1785
S'glyb_eExc'
p1786
sS'Org_iJN746 ERR42'
p1787
S'pqq_cExc'
p1788
sS'Org_iJN746 ERR43'
p1789
S'rib__D_eExc'
p1790
sS'Org_iJN746 ERR40'
p1791
S'C60mclPHA_cExc'
p1792
sS'Org_iJN746 ERR41'
p1793
S'aacald_cExc'
p1794
sS'Org_iJN746 RevBR322'
p1795
S'TALA'
p1796
sS'Org_iJN746 RevBR323'
p1797
S'TAURtex'
p1798
sS'Org_iJN746 RevBR320'
p1799
S'T4HCINNMtex'
p1800
sS'Org_iJN746 RevBR321'
p1801
S'T4HCINNMtpp'
p1802
sS'Org_iJN746 RevBR326'
p1803
S'THRA'
p1804
sS'Org_iJN746 RevBR327'
p1805
S'THRtex'
p1806
sS'Org_iJN746 RevBR324'
p1807
S'NADTRHD'
p1808
sS'Org_iJN746 RevBR325'
p1809
S'THRA2'
p1810
sS'Org_iJN746 RevBR328'
p1811
S'TKT1'
p1812
sS'Org_iJN746 RevBR329'
p1813
S'TKT2'
p1814
sS'Org_iJN746 IR16'
p1815
S'3HAD80'
p1816
sS'Org_iJN746 RevBR216'
p1817
g1610
sS'Org_iJN746 RevBR217'
p1818
g1612
sS'Org_iJN746 RevBR214'
p1819
g1614
sS'Org_iJN746 RevBR215'
p1820
g1616
sS'Org_iJN746 RevBR212'
p1821
g1618
sS'Org_iJN746 RevBR213'
p1822
g1620
sS'Org_iJN746 RevBR210'
p1823
g1622
sS'Org_iJN746 RevBR211'
p1824
g1624
sS'Org_iJN746 RevBR218'
p1825
g1606
sS'Org_iJN746 RevBR219'
p1826
g1608
sS'Org_iJN746 ER21'
p1827
S'glcn_eExc'
p1828
sS'Org_iJN746 ER20'
p1829
S'ser__L_eExc'
p1830
sS'Org_iJN746 ER23'
p1831
S'succ_eExc'
p1832
sS'Org_iJN746 ER22'
p1833
S'no2_eExc'
p1834
sS'Org_iJN746 ER25'
p1835
S'ac_eExc'
p1836
sS'Org_iJN746 ER24'
p1837
S'gly_eExc'
p1838
sS'Org_iJN746 ER27'
p1839
S'bz_eExc'
p1840
sS'Org_iJN746 ER26'
p1841
S'ethso3_eExc'
p1842
sS'Org_iJN746 ER29'
p1843
S'hpglu_cExc'
p1844
sS'Org_iJN746 ER28'
p1845
S'4abut_eExc'
p1846
sS'Org_iJN746 RevBR108'
p1847
g1540
sS'Org_iJN746 RevBR109'
p1848
g1542
sS'Org_iJN746 RevBR102'
p1849
g1544
sS'Org_iJN746 RevBR103'
p1850
g1546
sS'Org_iJN746 RevBR100'
p1851
g1548
sS'Org_iJN746 RevBR101'
p1852
g1550
sS'Org_iJN746 RevBR106'
p1853
g1552
sS'Org_iJN746 RevBR107'
p1854
g1554
sS'Org_iJN746 RevBR104'
p1855
g1556
sS'Org_iJN746 RevBR105'
p1856
g1558
sS'Org_iJN746 IR389'
p1857
S'NTD10'
p1858
sS'Org_iJN746 IR388'
p1859
S'NNDPR'
p1860
sS'Org_iJN746 IR387'
p1861
S'NNDMBRT'
p1862
sS'Org_iJN746 IR386'
p1863
S'NI2uabcpp'
p1864
sS'Org_iJN746 IR385'
p1865
S'NFORGLUAH'
p1866
sS'Org_iJN746 IR384'
p1867
S'NFMLDF'
p1868
sS'Org_iJN746 IR383'
p1869
S'NAt3_2pp'
p1870
sS'Org_iJN746 IR382'
p1871
S'NAt3_1p5pp'
p1872
sS'Org_iJN746 IR381'
p1873
S'NAMNPP'
p1874
sS'Org_iJN746 IR380'
p1875
S'NADS2'
p1876
sS'Org_iJN746 RevBR60'
p1877
g630
sS'Org_iJN746 RevBR61'
p1878
g632
sS'Org_iJN746 RevBR62'
p1879
g634
sS'Org_iJN746 RevBR63'
p1880
g636
sS'Org_iJN746 RevBR64'
p1881
g638
sS'Org_iJN746 IR258'
p1882
S'GLCabcpp'
p1883
sS'Org_iJN746 RevBR66'
p1884
g641
sS'Org_iJN746 RevBR67'
p1885
g643
sS'Org_iJN746 RevBR68'
p1886
g626
sS'Org_iJN746 RevBR69'
p1887
g628
sS'Org_iJN746 IR257'
p1888
S'GLCOASYNT'
p1889
sS'Org_iJN746 IR256'
p1890
S'GLCOAS'
p1891
sS'Org_iJN746 IR251'
p1892
S'GART'
p1893
sS'Org_iJN746 IR250'
p1894
S'GADOX'
p1895
sS'Org_iJN746 IR253'
p1896
S'GDBTALDH'
p1897
sS'Org_iJN746 IR252'
p1898
S'GCALDD'
p1899
sS'Org_iJN746 RR5'
p1900
g955
sS'Org_iJN746 RR4'
p1901
g957
sS'Org_iJN746 RR7'
p1902
g959
sS'Org_iJN746 RR6'
p1903
g961
sS'Org_iJN746 RR1'
p1904
g949
sS'Org_iJN746 RR3'
p1905
g951
sS'Org_iJN746 RR2'
p1906
g953
sS'Org_iJN746 RR9'
p1907
g963
sS'Org_iJN746 RR8'
p1908
g965
sS'Org_iJN746 ERR107'
p1909
S'ptrc_eExc'
p1910
sS'Org_iJN746 RR274'
p1911
g602
sS'Org_iJN746 RR275'
p1912
g604
sS'Org_iJN746 RR276'
p1913
g606
sS'Org_iJN746 RR277'
p1914
g608
sS'Org_iJN746 RR270'
p1915
g594
sS'Org_iJN746 RR271'
p1916
g596
sS'Org_iJN746 RR272'
p1917
g598
sS'Org_iJN746 RR273'
p1918
g600
sS'Org_iJN746 ERR101'
p1919
S'C100mclPHA_cExc'
p1920
sS'Org_iJN746 RR278'
p1921
g610
sS'Org_iJN746 RR279'
p1922
g612
sS'Org_iJN746 IR413'
p1923
S'OCAALD'
p1924
sS'Org_iJN746 IR412'
p1925
S'OBDHc'
p1926
sS'Org_iJN746 IR411'
p1927
S'OARGDC'
p1928
sS'Org_iJN746 IR410'
p1929
S'OAADC'
p1930
sS'Org_iJN746 IR417'
p1931
S'OMAHY'
p1932
sS'Org_iJN746 IR416'
p1933
S'OIVD3'
p1934
sS'Org_iJN746 IR415'
p1935
S'OIVD2'
p1936
sS'Org_iJN746 IR414'
p1937
S'OCOAT1'
p1938
sS'Org_iJN746 ERR51'
p1939
S'pi_eExc'
p1940
sS'Org_iJN746 ERR50'
p1941
S'34dhcinm_eExc'
p1942
sS'Org_iJN746 ERR53'
p1943
S'mso3_eExc'
p1944
sS'Org_iJN746 ERR52'
p1945
S'4hbz_eExc'
p1946
sS'Org_iJN746 ERR55'
p1947
S'vanlt_eExc'
p1948
sS'Org_iJN746 ERR54'
p1949
S'T4hcinnm_eExc'
p1950
sS'Org_iJN746 ERR57'
p1951
S'fe2_eExc'
p1952
sS'Org_iJN746 ERR56'
p1953
S'quin_eExc'
p1954
sS'Org_iJN746 ERR59'
p1955
S'ga_eExc'
p1956
sS'Org_iJN746 ERR58'
p1957
S'phe__L_eExc'
p1958
sS'Org_iJN746 RR308'
p1959
g1415
sS'Org_iJN746 RR309'
p1960
g1417
sS'Org_iJN746 RR300'
p1961
g1421
sS'Org_iJN746 RR301'
p1962
g1423
sS'Org_iJN746 RR302'
p1963
g1425
sS'Org_iJN746 RR303'
p1964
g346
sS'Org_iJN746 RR304'
p1965
g1429
sS'Org_iJN746 RR305'
p1966
g1431
sS'Org_iJN746 RR306'
p1967
g1433
sS'Org_iJN746 RR307'
p1968
g1435
sS'Org_iJN746 RR310'
p1969
g1198
sS'Org_iJN746 IR83'
p1970
S'AMPN'
p1971
sS'Org_iJN746 IR82'
p1972
S'AMPMS2'
p1973
sS'Org_iJN746 IR81'
p1974
S'ALDD2x_copy1'
p1975
sS'Org_iJN746 IR80'
p1976
S'ALCDkt'
p1977
sS'Org_iJN746 IR87'
p1978
S'APENTAMAH'
p1979
sS'Org_iJN746 IR86'
p1980
S'AP4AH'
p1981
sS'Org_iJN746 IR85'
p1982
S'ANS'
p1983
sS'Org_iJN746 IR84'
p1984
S'ANPRT'
p1985
sS'Org_iJN746 IR89'
p1986
S'APSR'
p1987
sS'Org_iJN746 IR88'
p1988
S'APRAUR'
p1989
sS'Org_iJN746 RevBR229'
p1990
g1392
sS'Org_iJN746 RevBR179'
p1991
g526
sS'Org_iJN746 RevBR178'
p1992
g528
sS'Org_iJN746 RevBR177'
p1993
g540
sS'Org_iJN746 RevBR176'
p1994
g542
sS'Org_iJN746 RevBR175'
p1995
g544
sS'Org_iJN746 RevBR174'
p1996
g546
sS'Org_iJN746 RevBR173'
p1997
g532
sS'Org_iJN746 RevBR172'
p1998
g534
sS'Org_iJN746 RevBR171'
p1999
g536
sS'Org_iJN746 RevBR170'
p2000
g538
sS'Org_iJN746 IR29'
p2001
S'3OAS140'
p2002
sS'Org_iJN746 IR28'
p2003
S'3OAS121'
p2004
sS'Org_iJN746 RevBR77'
p2005
g444
sS'Org_iJN746 RevBR76'
p2006
g446
sS'Org_iJN746 RevBR75'
p2007
g448
sS'Org_iJN746 RevBR74'
p2008
g450
sS'Org_iJN746 RevBR73'
p2009
g436
sS'Org_iJN746 RevBR72'
p2010
g438
sS'Org_iJN746 RevBR71'
p2011
g440
sS'Org_iJN746 RevBR70'
p2012
g442
sS'Org_iJN746 RevBR79'
p2013
g424
sS'Org_iJN746 RevBR78'
p2014
g426
sS'Org_iJN746 ER38'
p2015
S'34dhbz_eExc'
p2016
sS'Org_iJN746 ER39'
p2017
S'glyc_eExc'
p2018
sS'Org_iJN746 ER36'
p2019
S'fald_cExc'
p2020
sS'Org_iJN746 ER37'
p2021
S'met__L_eExc'
p2022
sS'Org_iJN746 ER34'
p2023
S'p_xyl_eExc'
p2024
sS'Org_iJN746 ER35'
p2025
S'fer_eExc'
p2026
sS'Org_iJN746 ER32'
p2027
S'octa_eExc'
p2028
sS'Org_iJN746 ER33'
p2029
S'ala__L_eExc'
p2030
sS'Org_iJN746 ER30'
p2031
S'akg_eExc'
p2032
sS'Org_iJN746 ER31'
p2033
S'mclPHA_cExc'
p2034
sS'Org_iJN746 IR286'
p2035
S'GTHOr'
p2036
sS'Org_iJN746 IR287'
p2037
S'GTHS'
p2038
sS'Org_iJN746 IR284'
p2039
S'GNNUC'
p2040
sS'Org_iJN746 IR285'
p2041
S'GRTT'
p2042
sS'Org_iJN746 IR282'
p2043
S'GND'
p2044
sS'Org_iJN746 IR283'
p2045
S'GNK'
p2046
sS'Org_iJN746 IR280'
p2047
S'GLYTRS'
p2048
sS'Org_iJN746 IR281'
p2049
S'GMPS2'
p2050
sS'Org_iJN746 IR530'
p2051
S'R15BPK'
p2052
sS'Org_iJN746 IR531'
p2053
S'R1PK'
p2054
sS'Org_iJN746 IR532'
p2055
S'RBFK'
p2056
sS'Org_iJN746 IR533'
p2057
S'RBFSa'
p2058
sS'Org_iJN746 IR534'
p2059
S'RBFSb'
p2060
sS'Org_iJN746 IR535'
p2061
S'RIBabcpp'
p2062
sS'Org_iJN746 IR536'
p2063
S'RNDR1'
p2064
sS'Org_iJN746 IR537'
p2065
S'RNDR2'
p2066
sS'Org_iJN746 RR267'
p2067
g408
sS'Org_iJN746 RR266'
p2068
g410
sS'Org_iJN746 RR265'
p2069
g412
sS'Org_iJN746 RR264'
p2070
g414
sS'Org_iJN746 RR263'
p2071
g400
sS'Org_iJN746 RR262'
p2072
g402
sS'Org_iJN746 RR261'
p2073
g404
sS'Org_iJN746 RR260'
p2074
g406
sS'Org_iJN746 RR269'
p2075
g416
sS'Org_iJN746 RR268'
p2076
g418
sS'Org_iJN746 ERR106'
p2077
S'glyclt_eExc'
p2078
sS'Org_iJN746 RevBR33'
p2079
S'ACKr'
p2080
sS'Org_iJN746 ERR104'
p2081
S'glc__D_eExc'
p2082
sS'Org_iJN746 ERR105'
p2083
S'cit_eExc'
p2084
sS'Org_iJN746 ERR102'
p2085
S'asp__L_eExc'
p2086
sS'Org_iJN746 ERR103'
p2087
S'hco3_eExc'
p2088
sS'Org_iJN746 ERR100'
p2089
S'tyr__L_eExc'
p2090
sS'Org_iJN746 RevBR32'
p2091
S'ACCOAC'
p2092
sS'Org_iJN746 RR93'
p2093
S'CO2tex'
p2094
sS'Org_iJN746 ERR24'
p2095
S'gly_eExc'
p2096
sS'Org_iJN746 ERR25'
p2097
S'ac_eExc'
p2098
sS'Org_iJN746 ERR26'
p2099
S'ethso3_eExc'
p2100
sS'Org_iJN746 ERR27'
p2101
S'bz_eExc'
p2102
sS'Org_iJN746 ERR20'
p2103
S'ser__L_eExc'
p2104
sS'Org_iJN746 ERR21'
p2105
S'glcn_eExc'
p2106
sS'Org_iJN746 ERR22'
p2107
S'no2_eExc'
p2108
sS'Org_iJN746 ERR23'
p2109
S'succ_eExc'
p2110
sS'Org_iJN746 RevBR37'
p2111
S'ACOAD4f'
p2112
sS'Org_iJN746 ERR28'
p2113
S'4abut_eExc'
p2114
sS'Org_iJN746 ERR29'
p2115
S'hpglu_cExc'
p2116
sS'Org_iJN746 RevBR36'
p2117
S'ACOAD3f'
p2118
sS'Org_iJN746 RR319'
p2119
g1188
sS'Org_iJN746 RR318'
p2120
g1190
sS'Org_iJN746 RevBR35'
p2121
S'ACOAD2f'
p2122
sS'Org_iJN746 RR313'
p2123
g1192
sS'Org_iJN746 RR312'
p2124
g1194
sS'Org_iJN746 RR311'
p2125
g1196
sS'Org_iJN746 RevBR34'
p2126
S'ACOAD1f'
p2127
sS'Org_iJN746 RR317'
p2128
g1200
sS'Org_iJN746 RR316'
p2129
g1202
sS'Org_iJN746 RR315'
p2130
g1204
sS'Org_iJN746 RR314'
p2131
g1206
sS'Org_iJN746 RevBR136'
p2132
g1340
sS'Org_iJN746 RevBR344'
p2133
S'VALtex'
p2134
sS'Org_iJN746 RevBR345'
p2135
S'VANKpp'
p2136
sS'Org_iJN746 RevBR346'
p2137
S'VANLNtex'
p2138
sS'Org_iJN746 RevBR347'
p2139
S'VANLTtex'
p2140
sS'Org_iJN746 RevBR340'
p2141
S'TYRtex'
p2142
sS'Org_iJN746 RevBR341'
p2143
S'UHBZ1t_pp'
p2144
sS'Org_iJN746 RevBR342'
p2145
S'UMPK'
p2146
sS'Org_iJN746 RevBR343'
p2147
S'VALTA'
p2148
sS'Org_iJN746 RevBR348'
p2149
S'VNLNpp'
p2150
sS'Org_iJN746 IR90'
p2151
S'ARGDr'
p2152
sS'Org_iJN746 IR91'
p2153
S'ARGDC'
p2154
sS'Org_iJN746 IR92'
p2155
S'ARGSS'
p2156
sS'Org_iJN746 IR93'
p2157
S'ARGTRS'
p2158
sS'Org_iJN746 IR94'
p2159
S'ARGabcpp'
p2160
sS'Org_iJN746 IR95'
p2161
S'ASNN'
p2162
sS'Org_iJN746 IR96'
p2163
S'ASNS1'
p2164
sS'Org_iJN746 IR97'
p2165
S'ASPCT'
p2166
sS'Org_iJN746 IR98'
p2167
S'ASPO1'
p2168
sS'Org_iJN746 IR99'
p2169
S'ASPO6'
p2170
sS'Org_iJN746 RevBR168'
p2171
g348
sS'Org_iJN746 RevBR169'
p2172
g350
sS'Org_iJN746 RevBR164'
p2173
g360
sS'Org_iJN746 RevBR165'
p2174
g362
sS'Org_iJN746 RevBR166'
p2175
g364
sS'Org_iJN746 RevBR167'
p2176
g366
sS'Org_iJN746 RevBR160'
p2177
g352
sS'Org_iJN746 RevBR161'
p2178
g354
sS'Org_iJN746 RevBR162'
p2179
g356
sS'Org_iJN746 RevBR163'
p2180
g358
sS'Org_iJN746 RevBR88'
p2181
g530
sS'Org_iJN746 RevBR89'
p2182
g23
sS'Org_iJN746 RevBR82'
p2183
g1471
sS'Org_iJN746 RevBR83'
p2184
g1473
sS'Org_iJN746 RevBR80'
p2185
g1475
sS'Org_iJN746 RevBR81'
p2186
g524
sS'Org_iJN746 RevBR86'
p2187
g1463
sS'Org_iJN746 RevBR87'
p2188
g1465
sS'Org_iJN746 RevBR84'
p2189
g1467
sS'Org_iJN746 RevBR85'
p2190
g1469
sS'Org_iJN746 ER49'
p2191
S'C80mclPHA_cExc'
p2192
sS'Org_iJN746 ER48'
p2193
S'C121mclPHA_cExc'
p2194
sS'Org_iJN746 ER43'
p2195
S'rib__D_eExc'
p2196
sS'Org_iJN746 ER42'
p2197
S'pqq_cExc'
p2198
sS'Org_iJN746 ER41'
p2199
S'aacald_cExc'
p2200
sS'Org_iJN746 ER40'
p2201
S'C60mclPHA_cExc'
p2202
sS'Org_iJN746 ER47'
p2203
S'his__L_eExc'
p2204
sS'Org_iJN746 ER46'
p2205
S'mal__L_eExc'
p2206
sS'Org_iJN746 ER45'
p2207
S'glyb_eExc'
p2208
sS'Org_iJN746 ER44'
p2209
S'thr__L_eExc'
p2210
sS'Org_iJN746 IR299'
p2211
S'HACD6i'
p2212
sS'Org_iJN746 IR298'
p2213
S'HACD5i'
p2214
sS'Org_iJN746 IR529'
p2215
S'R05224'
p2216
sS'Org_iJN746 IR528'
p2217
S'R05219'
p2218
sS'Org_iJN746 ER89'
p2219
S'pac_eExc'
p2220
sS'Org_iJN746 IR291'
p2221
S'GUAD'
p2222
sS'Org_iJN746 IR290'
p2223
S'GTPDPK'
p2224
sS'Org_iJN746 IR293'
p2225
S'GUDBUTNAH'
p2226
sS'Org_iJN746 IR292'
p2227
S'GUAPRT'
p2228
sS'Org_iJN746 IR295'
p2229
S'HACD2i'
p2230
sS'Org_iJN746 IR294'
p2231
S'HACD1i'
p2232
sS'Org_iJN746 IR297'
p2233
S'HACD4i'
p2234
sS'Org_iJN746 IR296'
p2235
S'HACD3i'
p2236
sS'Org_iJN746 ER87'
p2237
S'ddca_eExc'
p2238
sS'Org_iJN746 ER86'
p2239
S'isetac_eExc'
p2240
sS'Org_iJN746 RR258'
p2241
g971
sS'Org_iJN746 RR259'
p2242
g973
sS'Org_iJN746 RR252'
p2243
g975
sS'Org_iJN746 RR253'
p2244
g977
sS'Org_iJN746 RR250'
p2245
g849
sS'Org_iJN746 RR251'
p2246
g851
sS'Org_iJN746 RR256'
p2247
g983
sS'Org_iJN746 RR257'
p2248
g855
sS'Org_iJN746 RR254'
p2249
g987
sS'Org_iJN746 RR255'
p2250
S'OXPTNDH'
p2251
sS'Org_iJN746 ERR37'
p2252
S'met__L_eExc'
p2253
sS'Org_iJN746 ERR36'
p2254
S'fald_cExc'
p2255
sS'Org_iJN746 ERR35'
p2256
S'fer_eExc'
p2257
sS'Org_iJN746 ERR34'
p2258
S'p_xyl_eExc'
p2259
sS'Org_iJN746 ERR33'
p2260
S'ala__L_eExc'
p2261
sS'Org_iJN746 ERR32'
p2262
S'octa_eExc'
p2263
sS'Org_iJN746 ERR31'
p2264
S'mclPHA_cExc'
p2265
sS'Org_iJN746 ERR30'
p2266
S'akg_eExc'
p2267
sS'Org_iJN746 ERR39'
p2268
S'glyc_eExc'
p2269
sS'Org_iJN746 ERR38'
p2270
S'34dhbz_eExc'
p2271
sS'Org_iJN746 RR328'
p2272
g1812
sS'Org_iJN746 RR329'
p2273
g1814
sS'Org_iJN746 RR326'
p2274
g1804
sS'Org_iJN746 RR327'
p2275
g1806
sS'Org_iJN746 RR324'
p2276
g1808
sS'Org_iJN746 RR325'
p2277
g1810
sS'Org_iJN746 RR322'
p2278
g1796
sS'Org_iJN746 RR323'
p2279
g1798
sS'Org_iJN746 RR320'
p2280
g1800
sS'Org_iJN746 RR321'
p2281
g1802
sS'Org_iJN746 IR160'
p2282
S'DASYN181'
p2283
sS'Org_iJN746 RR37'
p2284
g2112
sS'Org_iJN746 RR36'
p2285
g2118
sS'Org_iJN746 RR35'
p2286
g2122
sS'Org_iJN746 RR34'
p2287
g2127
sS'Org_iJN746 RR33'
p2288
g2080
sS'Org_iJN746 RR32'
p2289
g2092
sS'Org_iJN746 RR31'
p2290
g1257
sS'Org_iJN746 RR30'
p2291
g921
sS'Org_iJN746 RR39'
p2292
g1249
sS'Org_iJN746 RR38'
p2293
g1251
sS'Org_iJN746 RevBR151'
p2294
g901
sS'Org_iJN746 RevBR150'
p2295
g903
sS'Org_iJN746 RevBR153'
p2296
g905
sS'Org_iJN746 RevBR152'
p2297
g907
sS'Org_iJN746 RevBR155'
p2298
g909
sS'Org_iJN746 RevBR154'
p2299
g911
sS'Org_iJN746 RevBR157'
p2300
g913
sS'Org_iJN746 RevBR156'
p2301
g915
sS'Org_iJN746 RevBR159'
p2302
g917
sS'Org_iJN746 RevBR158'
p2303
g919
sS'Org_iJN746 IR358'
p2304
S'MDH2'
p2305
sS'Org_iJN746 IR359'
p2306
S'ME1'
p2307
sS'Org_iJN746 IR350'
p2308
S'MACPD'
p2309
sS'Org_iJN746 IR351'
p2310
S'MALMDA'
p2311
sS'Org_iJN746 IR352'
p2312
S'MALS'
p2313
sS'Org_iJN746 IR353'
p2314
S'MALt2_2pp'
p2315
sS'Org_iJN746 IR354'
p2316
S'MBCOAi'
p2317
sS'Org_iJN746 IR355'
p2318
S'MCCC'
p2319
sS'Org_iJN746 IR356'
p2320
S'MCITD'
p2321
sS'Org_iJN746 IR357'
p2322
S'MCITS'
p2323
sS'Org_iJN746 RevBR99'
p2324
g1245
sS'Org_iJN746 RevBR98'
p2325
g1247
sS'Org_iJN746 ERR3'
p2326
S'fum_eExc'
p2327
sS'Org_iJN746 ERR2'
p2328
S'catechol_eExc'
p2329
sS'Org_iJN746 ERR5'
p2330
S'lac__L_eExc'
p2331
sS'Org_iJN746 ERR4'
p2332
S'o2_eExc'
p2333
sS'Org_iJN746 ERR7'
p2334
S'na1_eExc'
p2335
sS'Org_iJN746 ERR6'
p2336
S'glu__L_eExc'
p2337
sS'Org_iJN746 RevBR91'
p2338
g1253
sS'Org_iJN746 RevBR90'
p2339
g1255
sS'Org_iJN746 RevBR93'
p2340
g2094
sS'Org_iJN746 RevBR92'
p2341
g1259
sS'Org_iJN746 RevBR95'
p2342
g1261
sS'Org_iJN746 RevBR94'
p2343
g1263
sS'Org_iJN746 RevBR97'
p2344
g1265
sS'Org_iJN746 RevBR96'
p2345
g1267
sS'Org_iJN746 ER58'
p2346
S'phe__L_eExc'
p2347
sS'Org_iJN746 ER59'
p2348
S'ga_eExc'
p2349
sS'Org_iJN746 ER50'
p2350
S'34dhcinm_eExc'
p2351
sS'Org_iJN746 ER51'
p2352
S'pi_eExc'
p2353
sS'Org_iJN746 ER52'
p2354
S'4hbz_eExc'
p2355
sS'Org_iJN746 ER53'
p2356
S'mso3_eExc'
p2357
sS'Org_iJN746 ER54'
p2358
S'T4hcinnm_eExc'
p2359
sS'Org_iJN746 ER55'
p2360
S'vanlt_eExc'
p2361
sS'Org_iJN746 ER56'
p2362
S'quin_eExc'
p2363
sS'Org_iJN746 ER57'
p2364
S'fe2_eExc'
p2365
sS'Org_iJN746 IR518'
p2366
S'PSSA181'
p2367
sS'Org_iJN746 IR519'
p2368
S'PTOLDOX'
p2369
sS'Org_iJN746 IR516'
p2370
S'PSSA161'
p2371
sS'Org_iJN746 IR517'
p2372
S'PSSA180'
p2373
sS'Org_iJN746 IR514'
p2374
S'PSSA120'
p2375
sS'Org_iJN746 IR515'
p2376
S'PSSA160'
p2377
sS'Org_iJN746 IR512'
p2378
S'PSD181'
p2379
sS'Org_iJN746 IR513'
p2380
S'PSP_L'
p2381
sS'Org_iJN746 IR510'
p2382
S'PSD161'
p2383
sS'Org_iJN746 IR511'
p2384
S'PSD180'
p2385
sS'Org_iJN746 IR198'
p2386
S'EAR140y'
p2387
sS'Org_iJN746 IR199'
p2388
S'EAR141y'
p2389
sS'Org_iJN746 IR192'
p2390
S'DUTPDP'
p2391
sS'Org_iJN746 IR193'
p2392
S'DXPRIi'
p2393
sS'Org_iJN746 IR190'
p2394
S'DPHAPC80'
p2395
sS'Org_iJN746 IR191'
p2396
S'DPR'
p2397
sS'Org_iJN746 IR196'
p2398
S'EAR120y'
p2399
sS'Org_iJN746 IR197'
p2400
S'EAR121y'
p2401
sS'Org_iJN746 IR194'
p2402
S'DXPS'
p2403
sS'Org_iJN746 IR195'
p2404
S'EAR100y'
p2405
sS'Org_iJN746 IR170'
p2406
S'DHDPS'
p2407
sS'Org_iJN746 IR171'
p2408
S'DHFS'
p2409
sS'Org_iJN746 IR172'
p2410
S'DHNPA'
p2411
sS'Org_iJN746 IR173'
p2412
S'DHPACCOAHIT'
p2413
sS'Org_iJN746 IR174'
p2414
S'DHPM1'
p2415
sS'Org_iJN746 IR175'
p2416
S'DHPPDA'
p2417
sS'Org_iJN746 IR176'
p2418
S'DHPR'
p2419
sS'Org_iJN746 IR177'
p2420
S'DHPS'
p2421
sS'Org_iJN746 IR178'
p2422
S'DHQS'
p2423
sS'Org_iJN746 IR179'
p2424
S'DHSKDH'
p2425
sS'Org_iJN746 IR62'
p2426
S'ADCPS1'
p2427
sS'Org_iJN746 RR249'
p2428
g775
sS'Org_iJN746 RR248'
p2429
g777
sS'Org_iJN746 RR245'
p2430
g759
sS'Org_iJN746 RR244'
p2431
g761
sS'Org_iJN746 RR247'
p2432
g763
sS'Org_iJN746 RR246'
p2433
g765
sS'Org_iJN746 RR241'
p2434
g767
sS'Org_iJN746 RR240'
p2435
g769
sS'Org_iJN746 RR243'
p2436
g771
sS'Org_iJN746 RR242'
p2437
g773
sS'Org_iJN746 RR331'
p2438
g1638
sS'Org_iJN746 RR330'
p2439
g1640
sS'Org_iJN746 RR333'
p2440
g1642
sS'Org_iJN746 RR332'
p2441
g1644
sS'Org_iJN746 RR335'
p2442
g1630
sS'Org_iJN746 RR334'
p2443
g1632
sS'Org_iJN746 RR337'
p2444
g1634
sS'Org_iJN746 RR336'
p2445
g1636
sS'Org_iJN746 RR339'
p2446
g1626
sS'Org_iJN746 RR338'
p2447
g1628
sS'Org_iJN746 RevBR17'
p2448
g37
sS'Org_iJN746 RevBR16'
p2449
g39
sS'Org_iJN746 RevBR19'
p2450
g41
sS'Org_iJN746 RevBR18'
p2451
g43
sS'Org_iJN746 IR2'
p2452
S'2DHGLCK'
p2453
sS'Org_iJN746 IR3'
p2454
S'2DHGLCNkt_tpp'
p2455
sS'Org_iJN746 IR1'
p2456
S'1PPDCRc'
p2457
sS'Org_iJN746 IR6'
p2458
S'3HAD120'
p2459
sS'Org_iJN746 IR7'
p2460
S'3HAD121'
p2461
sS'Org_iJN746 IR4'
p2462
S'34HPPOR'
p2463
sS'Org_iJN746 IR5'
p2464
S'3HAD100'
p2465
sS'Org_iJN746 IR8'
p2466
S'3HAD140'
p2467
sS'Org_iJN746 IR9'
p2468
S'3HAD141'
p2469
sS'Org_iJN746 RevBR255'
p2470
g2251
sS'Org_iJN746 RR24'
p2471
g1010
sS'Org_iJN746 RR25'
p2472
g1012
sS'Org_iJN746 RR26'
p2473
g1014
sS'Org_iJN746 RR27'
p2474
g1016
sS'Org_iJN746 RR20'
p2475
g1018
sS'Org_iJN746 RR21'
p2476
g1020
sS'Org_iJN746 RR22'
p2477
g1022
sS'Org_iJN746 RR23'
p2478
g1024
sS'Org_iJN746 RR28'
p2479
g1026
sS'Org_iJN746 RR29'
p2480
g1028
sS'Org_iJN746 RevBR146'
p2481
g735
sS'Org_iJN746 RevBR147'
p2482
g737
sS'Org_iJN746 RevBR144'
p2483
g739
sS'Org_iJN746 RevBR145'
p2484
g741
sS'Org_iJN746 RevBR142'
p2485
g743
sS'Org_iJN746 RevBR143'
p2486
g745
sS'Org_iJN746 RevBR140'
p2487
g747
sS'Org_iJN746 RevBR141'
p2488
g749
sS'Org_iJN746 RevBR148'
p2489
g731
sS'Org_iJN746 RevBR149'
p2490
g733
sS'Org_iJN746 IR349'
p2491
S'MACCOAT'
p2492
sS'Org_iJN746 IR348'
p2493
S'MACACI'
p2494
sS'Org_iJN746 IR343'
p2495
S'LYSDC'
p2496
sS'Org_iJN746 IR342'
p2497
S'LPCOXc'
p2498
sS'Org_iJN746 IR341'
p2499
S'LEUabcpp'
p2500
sS'Org_iJN746 IR340'
p2501
S'LEUTRS'
p2502
sS'Org_iJN746 IR347'
p2503
S'L_LACD2'
p2504
sS'Org_iJN746 IR346'
p2505
S'LYSabcpp'
p2506
sS'Org_iJN746 IR345'
p2507
S'LYSTRS'
p2508
sS'Org_iJN746 IR344'
p2509
S'LYSMO'
p2510
sS'Org_iJN746 ER65'
p2511
S'arg__L_eExc'
p2512
sS'Org_iJN746 ER64'
p2513
S'pqqh2_cExc'
p2514
sS'Org_iJN746 ER67'
p2515
S'pentso3_eExc'
p2516
sS'Org_iJN746 ER66'
p2517
S'h_eExc'
p2518
sS'Org_iJN746 ER61'
p2519
S'nac_eExc'
p2520
sS'Org_iJN746 ER60'
p2521
S'ni2_eExc'
p2522
sS'Org_iJN746 ER63'
p2523
S'confrl_eExc'
p2524
sS'Org_iJN746 ER62'
p2525
S'ile__L_eExc'
p2526
sS'Org_iJN746 ER69'
p2527
S'chols_eExc'
p2528
sS'Org_iJN746 ER68'
p2529
S'C140mclPHA_cExc'
p2530
sS'Org_iJN746 IR501'
p2531
S'PRFGS'
p2532
sS'Org_iJN746 IR500'
p2533
S'PRATPP'
p2534
sS'Org_iJN746 IR503'
p2535
S'PROD2'
p2536
sS'Org_iJN746 IR502'
p2537
S'PRMICI'
p2538
sS'Org_iJN746 IR505'
p2539
S'PROabcpp'
p2540
sS'Org_iJN746 IR504'
p2541
S'PROTRS'
p2542
sS'Org_iJN746 IR507'
p2543
S'PROt4pp'
p2544
sS'Org_iJN746 IR506'
p2545
S'PROt2rpp'
p2546
sS'Org_iJN746 IR509'
p2547
S'PSD160'
p2548
sS'Org_iJN746 IR508'
p2549
S'PSD120'
p2550
sS'Org_iJN746 ER85'
p2551
S'crn_eExc'
p2552
sS'Org_iJN746 ER84'
p2553
S'leu__L_eExc'
p2554
sS'Org_iJN746 ER83'
p2555
S'lys__L_eExc'
p2556
sS'Org_iJN746 ER82'
p2557
S'dad_5_cExc'
p2558
sS'Org_iJN746 ER81'
p2559
S'3oxoadp_eExc'
p2560
sS'Org_iJN746 ER80'
p2561
S'C141mclPHA_cExc'
p2562
sS'Org_iJN746 IR189'
p2563
S'DPHAPC60'
p2564
sS'Org_iJN746 IR188'
p2565
S'DPHAPC141'
p2566
sS'Org_iJN746 IR185'
p2567
S'DPHAPC120'
p2568
sS'Org_iJN746 IR184'
p2569
S'DPHAPC100'
p2570
sS'Org_iJN746 IR187'
p2571
S'DPHAPC140'
p2572
sS'Org_iJN746 IR186'
p2573
S'DPHAPC121'
p2574
sS'Org_iJN746 IR181'
p2575
S'DNMPPA'
p2576
sS'Org_iJN746 IR180'
p2577
S'DMATT'
p2578
sS'Org_iJN746 IR183'
p2579
S'DPCOAK'
p2580
sS'Org_iJN746 IR182'
p2581
S'DNTPPA'
p2582
sS'Org_iJN746 IR523'
p2583
S'PYK'
p2584
sS'Org_iJN746 IR522'
p2585
S'PYDXPP'
p2586
sS'Org_iJN746 IR521'
p2587
S'PXMO'
p2588
sS'Org_iJN746 IR163'
p2589
S'DCTPD2'
p2590
sS'Org_iJN746 IR162'
p2591
S'DCTPD'
p2592
sS'Org_iJN746 IR161'
p2593
S'DB4PS'
p2594
sS'Org_iJN746 IR520'
p2595
S'PTRCabcpp'
p2596
sS'Org_iJN746 IR167'
p2597
S'DHAD1'
p2598
sS'Org_iJN746 IR166'
p2599
S'DH4MCHCDH'
p2600
sS'Org_iJN746 IR165'
p2601
S'DH3MCHCDH'
p2602
sS'Org_iJN746 IR164'
p2603
S'DDPA'
p2604
sS'Org_iJN746 IR527'
p2605
S'R05217'
p2606
sS'Org_iJN746 IR169'
p2607
S'DHDPRy'
p2608
sS'Org_iJN746 IR168'
p2609
S'DHAD2'
p2610
sS'Org_iJN746 IR526'
p2611
S'QULNS'
p2612
sS'Org_iJN746 IR525'
p2613
S'QUIDH'
p2614
sS'Org_iJN746 IR524'
p2615
S'PYRDOX'
p2616
sS'Org_iJN746 IR444'
p2617
S'PDXPP'
p2618
sS'Org_iJN746 IR445'
p2619
S'PE120abcpp'
p2620
sS'Org_iJN746 IR446'
p2621
S'PE160abcpp'
p2622
sS'Org_iJN746 IR447'
p2623
S'PE161abcpp'
p2624
sS'Org_iJN746 IR440'
p2625
S'PDH'
p2626
sS'Org_iJN746 IR441'
p2627
S'PDHa'
p2628
sS'Org_iJN746 IR442'
p2629
S'PDX5POi'
p2630
sS'Org_iJN746 IR443'
p2631
S'PDX5PS'
p2632
sS'Org_iJN746 RR344'
p2633
g2134
sS'Org_iJN746 RR345'
p2634
g2136
sS'Org_iJN746 RR346'
p2635
g2138
sS'Org_iJN746 RR347'
p2636
g2140
sS'Org_iJN746 RR340'
p2637
g2142
sS'Org_iJN746 RR341'
p2638
g2144
sS'Org_iJN746 RR342'
p2639
g2146
sS'Org_iJN746 RR343'
p2640
g2148
sS'Org_iJN746 RR348'
p2641
g2150
sS'Org_iJN746 ERR19'
p2642
S'icit_eExc'
p2643
sS'Org_iJN746 ERR18'
p2644
S'cys__L_eExc'
p2645
sS'Org_iJN746 ERR15'
p2646
S'spmd_eExc'
p2647
sS'Org_iJN746 ERR14'
p2648
S'ttdca_eExc'
p2649
sS'Org_iJN746 ERR17'
p2650
S'fru_eExc'
p2651
sS'Org_iJN746 ERR16'
p2652
S'2ddglcn_eExc'
p2653
sS'Org_iJN746 ERR11'
p2654
S'chol_eExc'
p2655
sS'Org_iJN746 ERR10'
p2656
S'hxa_eExc'
p2657
sS'Org_iJN746 ERR13'
p2658
S'hdca_eExc'
p2659
sS'Org_iJN746 ERR12'
p2660
S'h2o_eExc'
p2661
sS'Org_iJN746 RR182'
p2662
g572
sS'Org_iJN746 RR183'
p2663
g574
sS'Org_iJN746 RR180'
p2664
g576
sS'Org_iJN746 RR181'
p2665
g578
sS'Org_iJN746 RR186'
p2666
g580
sS'Org_iJN746 RR187'
p2667
g582
sS'Org_iJN746 RR184'
p2668
g584
sS'Org_iJN746 RR185'
p2669
g586
sS'Org_iJN746 RR188'
p2670
g588
sS'Org_iJN746 RR189'
p2671
g590
s.